(dp0
S'3088'
p1
(lp2
Vkamasutra
p3
asS'3258'
p4
(lp5
Vrestaurants
p6
asS'3250'
p7
(lp8
Vliving
p9
asS'3254'
p10
(lp11
Vfood
p12
asS'3558'
p13
(lp14
Vmanna
p15
aVdishes
p16
asS'346'
p17
(lp18
Vplace
p19
aVis
p20
asS'341'
p21
(lp22
Vseasoning
p23
aVsushi
p24
aVbland
p25
asS'810'
p26
(lp27
sS'3494'
p28
(lp29
sS'817'
p30
(lp31
Vwaiter
p32
asS'2853'
p33
(lp34
sS'1796'
p35
(lp36
Vguys
p37
asS'1794'
p38
(lp39
Voverpriced
p40
asS'1491'
p41
(lp42
Vcrust
p43
aVsauce
p44
aVdelicious
p45
asS'1496'
p46
(lp47
sS'1395'
p48
(lp49
Vmost
p50
asS'1701'
p51
(lp52
Vcrew
p53
aVWinnie
p54
asS'1060'
p55
(lp56
VSpreads
p57
aVgreat
p58
asS'2314'
p59
(lp60
Vservice
p61
aVgreat
p62
asS'2312'
p63
(lp64
Vgoing
p65
asS'1669'
p66
(lp67
Vplace
p68
asS'299'
p69
(lp70
Vservice
p71
aVbenedict
p72
asS'295'
p73
(lp74
VEverything
p75
aVup
p76
asS'292'
p77
(lp78
sS'1086'
p79
(lp80
sS'587'
p81
(lp82
sS'195'
p83
(lp84
Vweather
p85
asS'196'
p86
(lp87
Vstaff
p88
asS'190'
p89
(lp90
sS'192'
p91
(lp92
sS'3679'
p93
(lp94
Vplace
p95
asS'3672'
p96
(lp97
Vstaff
p98
asS'3149'
p99
(lp100
Vcame
p101
asS'3677'
p102
(lp103
Vplate
p104
asS'2989'
p105
(lp106
sS'2547'
p107
(lp108
VSpecials
p109
aVGnochi
p110
asS'3663'
p111
(lp112
Vdessert
p113
asS'2987'
p114
(lp115
Vfood
p116
asS'3022'
p117
(lp118
Vlove
p119
asS'3388'
p120
(lp121
sS'2268'
p122
(lp123
sS'2382'
p124
(lp125
Vyou
p126
aVtry
p127
aVfetish
p128
asS'2387'
p129
(lp130
VSeveral
p131
aVhad
p132
asS'2389'
p133
(lp134
Vdish
p135
aVfood
p136
asS'2263'
p137
(lp138
Vservice
p139
asS'2261'
p140
(lp141
Vlist
p142
asS'3581'
p143
(lp144
Vcheeseburgers
p145
asS'3583'
p146
(lp147
Vfell
p148
asS'1231'
p149
(lp150
Vbagels
p151
asS'1233'
p152
(lp153
VHH
p154
asS'441'
p155
(lp156
Vservice
p157
asS'2285'
p158
(lp159
Vfood
p160
asS'2514'
p161
(lp162
sS'2516'
p163
(lp164
VI
p165
aVgo
p166
aVplace
p167
asS'902'
p168
(lp169
sS'900'
p170
(lp171
VInterior
p172
aVwas
p173
asS'906'
p174
(lp175
sS'1540'
p176
(lp177
sS'904'
p178
(lp179
Vgotten
p180
asS'1536'
p181
(lp182
sS'1534'
p183
(lp184
sS'2169'
p185
(lp186
sS'644'
p187
(lp188
sS'3094'
p189
(lp190
sS'3095'
p191
(lp192
g165
aVfan
p193
aVpaneer
p194
asS'649'
p195
(lp196
sS'1539'
p197
(lp198
sS'2614'
p199
(lp200
Vplace
p201
asS'2611'
p202
(lp203
sS'2610'
p204
(lp205
Vtoppings
p206
asS'1946'
p207
(lp208
VVillage
p209
asS'3266'
p210
(lp211
Vsomeone
p212
aVsimplicity
p213
aVelegance
p214
aVplace
p215
aVKai
p216
asS'331'
p217
(lp218
Vfriend
p219
asS'330'
p220
(lp221
sS'333'
p222
(lp223
VBoy
p224
aVwas
p225
asS'1908'
p226
(lp227
Vreservations
p228
aVrestaraurant
p229
aVsmall
p230
asS'3296'
p231
(lp232
Vit
p233
aVcrowded
p234
asS'1905'
p235
(lp236
sS'1902'
p237
(lp238
VSteak
p239
asS'3450'
p240
(lp241
sS'3518'
p242
(lp243
VEw
p244
asS'3457'
p245
(lp246
Vwe
p247
aVwalked
p248
asS'3458'
p249
(lp250
sS'3510'
p251
(lp252
Vwas
p253
aVexperience
p254
aVrestaurant
p255
asS'2686'
p256
(lp257
Vservice
p258
aVplace
p259
asS'2246'
p260
(lp261
Vgo
p262
asS'1993'
p263
(lp264
sS'1992'
p265
(lp266
sS'1627'
p267
(lp268
Vservice
p269
asS'1997'
p270
(lp271
g165
aVfelt
p272
asS'3200'
p273
(lp274
sS'1462'
p275
(lp276
Vdishes
p277
aV$
p278
asS'559'
p279
(lp280
sS'3638'
p281
(lp282
Vpizza
p283
aVcheese
p284
aVlunch
p285
aVPizza
p286
aVWe
p287
aVfigured
p288
asS'747'
p289
(lp290
sS'555'
p291
(lp292
Vplace
p293
asS'3634'
p294
(lp295
sS'3632'
p296
(lp297
sS'3633'
p298
(lp299
Vservice
p300
aVthey
p301
aVtreat
p302
asS'3017'
p303
(lp304
Vgirl
p305
ag165
aVHUNGRY
p306
asS'3063'
p307
(lp308
sS'2948'
p309
(lp310
sS'2945'
p311
(lp312
Vroom
p313
asS'236'
p314
(lp315
Vmoney
p316
aVBo
p317
asS'1053'
p318
(lp319
Vstuff
p320
asS'2341'
p321
(lp322
sS'2226'
p323
(lp324
Vprice
p325
aVreasonable
p326
asS'2224'
p327
(lp328
sS'3341'
p329
(lp330
Vit
p331
aVwas
p332
asS'1195'
p333
(lp334
Vprices
p335
aVanything
p336
aVsushi
p337
asS'3344'
p338
(lp339
Vofficial
p340
aVtimes
p341
aVB.O.G
p342
asS'1693'
p343
(lp344
sS'1756'
p345
(lp346
sS'1699'
p347
(lp348
Vdumplings
p349
asS'1177'
p350
(lp351
sS'147'
p352
(lp353
Vstyle
p354
aVribs
p355
asS'140'
p356
(lp357
sS'1170'
p358
(lp359
Vgo
p360
asS'2701'
p361
(lp362
VService
p363
aVgreat
p364
aVfood
p365
aVfantastic
p366
asS'611'
p367
(lp368
sS'617'
p369
(lp370
sS'1178'
p371
(lp372
sS'3708'
p373
(lp374
sS'1885'
p375
(lp376
sS'2856'
p377
(lp378
Vthey
p379
aV've
p380
aVspace
p381
asS'1882'
p382
(lp383
sS'3704'
p384
(lp385
sS'1285'
p386
(lp387
g165
aVlive
p388
asS'2088'
p389
(lp390
sS'2122'
p391
(lp392
Vsizes
p393
aVhuge
p394
aVsushi
p395
asS'949'
p396
(lp397
Vwine
p398
aVtea
p399
asS'3117'
p400
(lp401
Vfood
p402
asS'2083'
p403
(lp404
Vsum
p405
aVso-so
p406
asS'944'
p407
(lp408
g165
aVwent
p409
asS'945'
p410
(lp411
Vcafe
p412
aVservice
p413
asS'1289'
p414
(lp415
sS'943'
p416
(lp417
sS'941'
p418
(lp419
Vservice
p420
aVexcellent
p421
asS'2539'
p422
(lp423
Vcatcher
p424
aVspecial
p425
aVselections
p426
asS'517'
p427
(lp428
Vpage
p429
asS'1572'
p430
(lp431
VJeckll
p432
aVfun
p433
asS'687'
p434
(lp435
sS'2535'
p436
(lp437
sS'2712'
p438
(lp439
Vtimes
p440
asS'2710'
p441
(lp442
sS'1192'
p443
(lp444
Vsushi
p445
asS'1300'
p446
(lp447
sS'3103'
p448
(lp449
Vmanhattan
p450
aVUsha
p451
asS'2714'
p452
(lp453
Vmenu
p454
asS'622'
p455
(lp456
Vplace
p457
aVadvice
p458
asS'2652'
p459
(lp460
Vlights
p461
aVrestaurant
p462
aVyou
p463
aVputting
p464
asS'2655'
p465
(lp466
sS'137'
p467
(lp468
Vplace
p469
aVcrowded
p470
asS'490'
p471
(lp472
sS'3419'
p473
(lp474
Vcuisine
p475
aVis
p476
asS'1839'
p477
(lp478
VFood
p479
aVgreat
p480
asS'29'
p481
(lp482
Vroom
p483
asS'407'
p484
(lp485
Vsushi
p486
aVseemed
p487
asS'2407'
p488
(lp489
Vreason
p490
asS'2156'
p491
(lp492
VNYC
p493
asS'938'
p494
(lp495
sS'403'
p496
(lp497
Vit
p498
aVaverage
p499
aVit
p500
aVnight
p501
asS'402'
p502
(lp503
g165
aVSpecial
p504
asS'2400'
p505
(lp506
Vsalad
p507
aVbasic
p508
aVtofu
p509
asS'2153'
p510
(lp511
sS'930'
p512
(lp513
Vvodka
p514
aVvodka
p515
aVcocktail
p516
asS'937'
p517
(lp518
VPRICES
p519
asS'936'
p520
(lp521
Vcame
p522
asS'935'
p523
(lp524
sS'2409'
p525
(lp526
Vheel
p527
aVdelivery
p528
asS'414'
p529
(lp530
Vfood
p531
asS'1952'
p532
(lp533
Vfood
p534
aVservice
p535
aVexcellent
p536
asS'3567'
p537
(lp538
Vfritter
p539
asS'3242'
p540
(lp541
sS'3247'
p542
(lp543
Vspinach
p544
asS'3245'
p545
(lp546
Vbuns
p547
aVgood
p548
asS'378'
p549
(lp550
Vfish
p551
asS'827'
p552
(lp553
VIt
p554
aVsurprise
p555
asS'826'
p556
(lp557
sS'1063'
p558
(lp559
Vforgivable
p560
asS'822'
p561
(lp562
Vreviews
p563
asS'704'
p564
(lp565
Vprices
p566
aVcheap
p567
aVit
p568
aVfabulous
p569
asS'705'
p570
(lp571
VIT
p572
aVGREAT
p573
aVit
p574
aVcheap
p575
aVportions
p576
aVsmall
p577
aVfood
p578
aVNOT
p579
aVmean
p580
asS'706'
p581
(lp582
sS'1483'
p583
(lp584
VThey
p585
aVfriendlier
p586
asS'1480'
p587
(lp588
sS'397'
p589
(lp590
Vroll
p591
asS'1485'
p592
(lp593
VPizza
p594
asS'394'
p595
(lp596
Vassortment
p597
aVfish
p598
asS'3306'
p599
(lp600
sS'3303'
p601
(lp602
VBisque
p603
aVoz
p604
asS'2309'
p605
(lp606
sS'928'
p607
(lp608
g165
aVcare
p609
asS'1710'
p610
(lp611
Vwaiter
p612
asS'1717'
p613
(lp614
Vtake
p615
asS'1716'
p616
(lp617
Vplace
p618
aVStrike
p619
asS'1715'
p620
(lp621
sS'1718'
p622
(lp623
sS'2305'
p624
(lp625
sS'2798'
p626
(lp627
sS'1653'
p628
(lp629
sS'2289'
p630
(lp631
Vservice
p632
aVgood
p633
aVresturant
p634
asS'1139'
p635
(lp636
sS'3666'
p637
(lp638
sS'580'
p639
(lp640
VWe
p641
aVconcluded
p642
asS'3662'
p643
(lp644
Vdish
p645
aVservice
p646
aVattentive
p647
asS'2281'
p648
(lp649
sS'3668'
p650
(lp651
Vpresentation
p652
asS'588'
p653
(lp654
Vfood
p655
aVexcellent
p656
aVexperience
p657
aVcool
p658
asS'1633'
p659
(lp660
sS'2838'
p661
(lp662
sS'3159'
p663
(lp664
Vcoffee
p665
aVgood
p666
asS'2834'
p667
(lp668
sS'3107'
p669
(lp670
sS'2275'
p671
(lp672
Vplace
p673
aVhole-in-the-wall
p674
asS'3019'
p675
(lp676
Vcouple
p677
aVhusband
p678
asS'1430'
p679
(lp680
Vplace
p681
asS'418'
p682
(lp683
Vminutes
p684
asS'2574'
p685
(lp686
VIngredients
p687
aVorganic
p688
asS'3016'
p689
(lp690
Vqualities
p691
aVmake
p692
asS'2573'
p693
(lp694
sS'3014'
p695
(lp696
Vfirst
p697
aVcall
p698
aVwe
p699
aVentered
p700
asS'2571'
p701
(lp702
VAmbience
p703
aVcute
p704
asS'2378'
p705
(lp706
Vservice
p707
aVshort-order
p708
asS'2379'
p709
(lp710
Vlike
p711
asS'512'
p712
(lp713
Vd'
p714
aVrude
p715
asS'1003'
p716
(lp717
sS'1001'
p718
(lp719
Vplace
p720
asS'1349'
p721
(lp722
Vevening
p723
aVfriends
p724
asS'3590'
p725
(lp726
sS'2590'
p727
(lp728
sS'3595'
p729
(lp730
sS'629'
p731
(lp732
sS'2051'
p733
(lp734
Vname
p735
asS'974'
p736
(lp737
Vtimes
p738
aVcraving
p739
aVplace
p740
asS'971'
p741
(lp742
Vchicken
p743
asS'970'
p744
(lp745
sS'3696'
p746
(lp747
sS'182'
p748
(lp749
Vsomosas
p750
aVdhosas
p751
aVdissapointing
p752
asS'180'
p753
(lp754
Vside
p755
asS'3089'
p756
(lp757
Vfan
p758
asS'1507'
p759
(lp760
Vstay
p761
asS'650'
p762
(lp763
Vis
p764
asS'185'
p765
(lp766
Vyou
p767
aVdo
p768
aVspicy
p769
aVfood
p770
asS'1508'
p771
(lp772
Vservice
p773
asS'2114'
p774
(lp775
sS'2116'
p776
(lp777
Vrolls
p778
asS'659'
p779
(lp780
sS'2623'
p781
(lp782
Vplace
p783
asS'1123'
p784
(lp785
Vkitchen
p786
aVrolls
p787
aVnight
p788
asS'2624'
p789
(lp790
g165
aVthought
p791
aVplace
p792
aVoverrated
p793
asS'3526'
p794
(lp795
VWe
p796
aVgo
p797
asS'3520'
p798
(lp799
sS'3087'
p800
(lp801
Vdrinks
p802
asS'1917'
p803
(lp804
Vfood
p805
aVgood
p806
asS'862'
p807
(lp808
Vdecor
p809
aVsimple
p810
asS'867'
p811
(lp812
sS'2129'
p813
(lp814
sS'2699'
p815
(lp816
sS'2696'
p817
(lp818
Vmenu
p819
aVtasting
p820
asS'2029'
p821
(lp822
Vproblem
p823
asS'885'
p824
(lp825
Vplace
p826
aVfood
p827
aVhorrible
p828
asS'888'
p829
(lp830
Vwhat
p831
aVone
p832
aVasked
p833
asS'278'
p834
(lp835
Vfusion
p836
asS'279'
p837
(lp838
Vway
p839
aVit
p840
aVColonies
p841
asS'3233'
p842
(lp843
sS'1966'
p844
(lp845
Vplace
p846
asS'188'
p847
(lp848
Vpart
p849
aVservice
p850
asS'1960'
p851
(lp852
sS'1613'
p853
(lp854
sS'1610'
p855
(lp856
Vpizza
p857
asS'328'
p858
(lp859
Vit
p860
aVended
p861
aVplace
p862
ag165
aVglad
p863
aVit
p864
aVgreat
p865
asS'562'
p866
(lp867
Vtable
p868
asS'774'
p869
(lp870
sS'777'
p871
(lp872
Vcriticize
p873
asS'2877'
p874
(lp875
Vkids
p876
aVlove
p877
asS'2876'
p878
(lp879
Vexperience
p880
aVtimes
p881
asS'206'
p882
(lp883
Vits
p884
aVis
p885
aVfood
p886
aVdelicious
p887
asS'3625'
p888
(lp889
sS'3355'
p890
(lp891
Vcake
p892
aVgelato
p893
ag165
aVthought
p894
asS'2979'
p895
(lp896
Vfood
p897
aVaweful
p898
asS'72'
p899
(lp900
Vrestaurants
p901
asS'71'
p902
(lp903
Vwhat
p904
aVMADE
p905
aVPizza
p906
aVservice
p907
aVarea
p908
aVplace
p909
asS'2546'
p910
(lp911
V's
p912
asS'1047'
p913
(lp914
VJapenese
p915
aVfind
p916
asS'2235'
p917
(lp918
Vone
p919
asS'1683'
p920
(lp921
Vservice
p922
aVfood
p923
asS'1687'
p924
(lp925
sS'1766'
p926
(lp927
VFood
p928
asS'1146'
p929
(lp930
sS'3289'
p931
(lp932
sS'1148'
p933
(lp934
sS'3479'
p935
(lp936
sS'2954'
p937
(lp938
Vneighborhood
p939
aVnice
p940
asS'2096'
p941
(lp942
Vplaces
p943
asS'2093'
p944
(lp945
Vgo
p946
asS'3652'
p947
(lp948
Vcosts
p949
asS'2526'
p950
(lp951
VDeliveries
p952
aVtake
p953
aVprices
p954
asS'1302'
p955
(lp956
Vprices
p957
aVget
p958
asS'2488'
p959
(lp960
sS'695'
p961
(lp962
VCa
p963
aVwait
p964
asS'3120'
p965
(lp966
Vfood
p967
asS'543'
p968
(lp969
sS'527'
p970
(lp971
Vdrinks
p972
aVcouple
p973
asS'547'
p974
(lp975
sS'544'
p976
(lp977
VIt
p978
aVspot
p979
asS'1467'
p980
(lp981
Vtimes
p982
asS'1466'
p983
(lp984
Vattorney
p985
aVside
p986
aVconversation
p987
asS'2241'
p988
(lp989
sS'2243'
p990
(lp991
Vgo
p992
aVlocation
p993
aVCollege
p994
aVnear
p995
aVprices
p996
aVreasonable
p997
asS'997'
p998
(lp999
sS'2467'
p1000
(lp1001
sS'2461'
p1002
(lp1003
VABOUT
p1004
aVCUISINE
p1005
asS'992'
p1006
(lp1007
Vkind
p1008
asS'2704'
p1009
(lp1010
sS'2468'
p1011
(lp1012
sS'126'
p1013
(lp1014
VSeating
p1015
aV's
p1016
asS'1020'
p1017
(lp1018
Vreally
p1019
aVdepends
p1020
asS'3379'
p1021
(lp1022
Vplace
p1023
aVSquare
p1024
asS'2068'
p1025
(lp1026
sS'2146'
p1027
(lp1028
Vfood
p1029
aVatmosphere
p1030
aVstaff
p1031
aVmakes
p1032
asS'2145'
p1033
(lp1034
sS'411'
p1035
(lp1036
Vbrought
p1037
aVwas
p1038
asS'413'
p1039
(lp1040
Vcheck
p1041
asS'2060'
p1042
(lp1043
Vhall
p1044
asS'922'
p1045
(lp1046
Vservice
p1047
asS'2796'
p1048
(lp1049
Vfood
p1050
asS'419'
p1051
(lp1052
sS'2066'
p1053
(lp1054
sS'313'
p1055
(lp1056
sS'317'
p1057
(lp1058
sS'314'
p1059
(lp1060
Vpints
p1061
aVquality
p1062
asS'1920'
p1063
(lp1064
Varrived
p1065
asS'1921'
p1066
(lp1067
Vfood
p1068
aVsurprise
p1069
asS'448'
p1070
(lp1071
Vpies
p1072
aVget
p1073
asS'3272'
p1074
(lp1075
Vcollection
p1076
asS'832'
p1077
(lp1078
sS'3473'
p1079
(lp1080
VLOUD
p1081
asS'1245'
p1082
(lp1083
sS'2403'
p1084
(lp1085
sS'3570'
p1086
(lp1087
Vbucks
p1088
aVpeople
p1089
asS'2359'
p1090
(lp1091
Vexperience
p1092
aVbill
p1093
aVsteep
p1094
asS'722'
p1095
(lp1096
Vambience
p1097
aVit
p1098
aVdark
p1099
asS'363'
p1100
(lp1101
Vlist
p1102
aVfine
p1103
asS'2937'
p1104
(lp1105
Vsqueeze
p1106
aVtreat
p1107
asS'2933'
p1108
(lp1109
sS'2931'
p1110
(lp1111
Vfood
p1112
aVgood
p1113
ag165
aVleft
p1114
asS'382'
p1115
(lp1116
Vnoodles
p1117
aVyummy
p1118
aVcalamari
p1119
aVcomes
p1120
asS'3313'
p1121
(lp1122
Vbday
p1123
aVwent
p1124
asS'444'
p1125
(lp1126
VPatsy
p1127
asS'784'
p1128
(lp1129
Vplace
p1130
asS'785'
p1131
(lp1132
Vfeel
p1133
aVzen
p1134
asS'2065'
p1135
(lp1136
Vgo
p1137
asS'1643'
p1138
(lp1139
sS'1642'
p1140
(lp1141
Vhad
p1142
asS'1649'
p1143
(lp1144
Vsushi
p1145
asS'2692'
p1146
(lp1147
Vstaff
p1148
aVattentive
p1149
asS'3617'
p1150
(lp1151
Vneighborhood
p1152
asS'3619'
p1153
(lp1154
sS'571'
p1155
(lp1156
Vtime
p1157
asS'60'
p1158
(lp1159
sS'2195'
p1160
(lp1161
Vservice
p1162
aVexcellent
p1163
asS'3168'
p1164
(lp1165
Vcorner
p1166
aVbagel
p1167
aVway
p1168
asS'2197'
p1169
(lp1170
Vsushi
p1171
aVgood
p1172
aVplace
p1173
aVThey
p1174
aVneed
p1175
asS'2198'
p1176
(lp1177
VFaan
p1178
aVgood
p1179
asS'2199'
p1180
(lp1181
sS'3162'
p1182
(lp1183
Vtown
p1184
asS'2807'
p1185
(lp1186
Vplace
p1187
asS'2569'
p1188
(lp1189
Vreviews
p1190
asS'2406'
p1191
(lp1192
Vfritters
p1193
asS'1423'
p1194
(lp1195
Vspecial
p1196
aVcooking
p1197
aVrestaurant
p1198
aVhotpot
p1199
asS'2207'
p1200
(lp1201
Vus
p1202
aVseated
p1203
asS'3364'
p1204
(lp1205
Vspot
p1206
asS'1428'
p1207
(lp1208
Vit
p1209
aVgood
p1210
ag165
aVwent
p1211
asS'3366'
p1212
(lp1213
Vfood
p1214
aVpastas
p1215
asS'1373'
p1216
(lp1217
sS'1584'
p1218
(lp1219
VBEST
p1220
aVSHOW
p1221
asS'1038'
p1222
(lp1223
Vservice
p1224
asS'732'
p1225
(lp1226
Vburger
p1227
aVgreat
p1228
asS'508'
p1229
(lp1230
VFrites
p1231
asS'739'
p1232
(lp1233
Vwaiter
p1234
aVfound
p1235
asS'1030'
p1236
(lp1237
Vjob
p1238
aVwaitresses
p1239
aVfriendly
p1240
asS'2151'
p1241
(lp1242
Vrate
p1243
asS'2428'
p1244
(lp1245
sS'1358'
p1246
(lp1247
Vprice
p1248
asS'468'
p1249
(lp1250
Vsnobs
p1251
aVneed
p1252
aVkind
p1253
asS'2580'
p1254
(lp1255
Vservice
p1256
asS'1171'
p1257
(lp1258
sS'464'
p1259
(lp1260
Vfood
p1261
aVphenomenal
p1262
aVambiance
p1263
aVminimal
p1264
aVdishes
p1265
aVveal
p1266
asS'1351'
p1267
(lp1268
Vwork
p1269
asS'2423'
p1270
(lp1271
Vopened
p1272
ag165
aVlive
p1273
asS'463'
p1274
(lp1275
sS'608'
p1276
(lp1277
Vwe
p1278
aVwalked
p1279
aVit
p1280
aVwas
p1281
asS'164'
p1282
(lp1283
sS'167'
p1284
(lp1285
Vstuff
p1286
aVturn-over
p1287
asS'966'
p1288
(lp1289
Vquality
p1290
asS'2898'
p1291
(lp1292
Vportion
p1293
asS'783'
p1294
(lp1295
sS'969'
p1296
(lp1297
sS'3685'
p1298
(lp1299
Vmoney
p1300
asS'2109'
p1301
(lp1302
Vservice
p1303
aVacousitcs
p1304
aVechoes
p1305
asS'1102'
p1306
(lp1307
sS'1518'
p1308
(lp1309
Vplace
p1310
asS'2103'
p1311
(lp1312
Vfresh
p1313
aVbrought
p1314
asS'1517'
p1315
(lp1316
Vplace
p1317
asS'2100'
p1318
(lp1319
sS'1109'
p1320
(lp1321
Vpotatoes
p1322
aVhands
p1323
asS'2730'
p1324
(lp1325
VJackel
p1326
asS'2635'
p1327
(lp1328
sS'2739'
p1329
(lp1330
sS'3533'
p1331
(lp1332
Vplace
p1333
asS'1158'
p1334
(lp1335
sS'1816'
p1336
(lp1337
Vspot
p1338
asS'1811'
p1339
(lp1340
Vagenda
p1341
asS'2121'
p1342
(lp1343
VIndoor
p1344
aVcozy
p1345
asS'2437'
p1346
(lp1347
sS'875'
p1348
(lp1349
Vwe
p1350
aVarrived
p1351
aVrestaurant
p1352
aVempty
p1353
asS'1818'
p1354
(lp1355
sS'2794'
p1356
(lp1357
sS'871'
p1358
(lp1359
Vit
p1360
aVdeal
p1361
asS'2742'
p1362
(lp1363
Vmartini
p1364
asS'3181'
p1365
(lp1366
sS'3183'
p1367
(lp1368
sS'2748'
p1369
(lp1370
Vservice
p1371
aVthing
p1372
asS'3482'
p1373
(lp1374
sS'647'
p1375
(lp1376
Vfood
p1377
asS'897'
p1378
(lp1379
sS'899'
p1380
(lp1381
VFood
p1382
asS'646'
p1383
(lp1384
sS'671'
p1385
(lp1386
Vpot
p1387
aVplatters
p1388
asS'2165'
p1389
(lp1390
Vbagel
p1391
asS'3545'
p1392
(lp1393
sS'1601'
p1394
(lp1395
Ventrees
p1396
asS'3224'
p1397
(lp1398
Veverything
p1399
aVmenu
p1400
asS'1974'
p1401
(lp1402
Vit
p1403
aVwas
p1404
asS'1605'
p1405
(lp1406
sS'355'
p1407
(lp1408
sS'353'
p1409
(lp1410
VMargarita
p1411
asS'352'
p1412
(lp1413
sS'950'
p1414
(lp1415
sS'802'
p1416
(lp1417
VOne
p1418
aVLobster
p1419
asS'1614'
p1420
(lp1421
Vaunt
p1422
aVcook
p1423
asS'216'
p1424
(lp1425
Vtry
p1426
asS'214'
p1427
(lp1428
VWaitstaff
p1429
aVattentive
p1430
asS'1967'
p1431
(lp1432
sS'213'
p1433
(lp1434
Vwater
p1435
aVmouth
p1436
asS'210'
p1437
(lp1438
sS'2847'
p1439
(lp1440
VBirthday
p1441
aVwaiter
p1442
aVsaw
p1443
aVgift
p1444
aVdessert
p1445
asS'2844'
p1446
(lp1447
Vrestaurant
p1448
asS'2968'
p1449
(lp1450
sS'3323'
p1451
(lp1452
sS'3326'
p1453
(lp1454
sS'3043'
p1455
(lp1456
Vget
p1457
aVthey
p1458
aVreasonably
p1459
asS'41'
p1460
(lp1461
sS'3044'
p1462
(lp1463
sS'3046'
p1464
(lp1465
Vposts
p1466
asS'2323'
p1467
(lp1468
sS'2321'
p1469
(lp1470
Vplace
p1471
asS'2320'
p1472
(lp1473
VService
p1474
aVslow
p1475
aVpeople
p1476
asS'1770'
p1477
(lp1478
Vsushi
p1479
aVhad
p1480
asS'2325'
p1481
(lp1482
Vdishes
p1483
aVavailable
p1484
asS'1778'
p1485
(lp1486
Vatmosphere
p1487
aVnothing
p1488
asS'334'
p1489
(lp1490
Vfood
p1491
aVwas
p1492
asS'1676'
p1493
(lp1494
sS'3488'
p1495
(lp1496
sS'1097'
p1497
(lp1498
Vspot
p1499
aVcuisine
p1500
asS'679'
p1501
(lp1502
sS'1093'
p1503
(lp1504
Vrestaurant
p1505
aVRoth
p1506
aVcity
p1507
asS'1154'
p1508
(lp1509
sS'1156'
p1510
(lp1511
Vhands
p1512
aVJimmy
p1513
asS'1150'
p1514
(lp1515
VDominican
p1516
aVJimmy
p1517
asS'3487'
p1518
(lp1519
sS'260'
p1520
(lp1521
Vdish
p1522
asS'3133'
p1523
(lp1524
Vphrase
p1525
aVhot
p1526
asS'3647'
p1527
(lp1528
sS'2998'
p1529
(lp1530
Vfood
p1531
aVplace
p1532
aVgarden
p1533
asS'2553'
p1534
(lp1535
sS'3038'
p1536
(lp1537
VStaffs
p1538
aVfriendly
p1539
asS'1977'
p1540
(lp1541
sS'1556'
p1542
(lp1543
sS'2991'
p1544
(lp1545
Vsteak
p1546
aVfatty
p1547
asS'57'
p1548
(lp1549
sS'2492'
p1550
(lp1551
Vsandwhich
p1552
asS'3030'
p1553
(lp1554
sS'2995'
p1555
(lp1556
Vrisotto-yum
p1557
aVscallops
p1558
asS'2390'
p1559
(lp1560
g165
aVsure
p1561
aVdish
p1562
aVsum
p1563
aVitem
p1564
asS'54'
p1565
(lp1566
Vway
p1567
aVBrewery
p1568
asS'1411'
p1569
(lp1570
sS'2252'
p1571
(lp1572
Voblige
p1573
asS'1416'
p1574
(lp1575
Vwhats
p1576
asS'2399'
p1577
(lp1578
Vportions
p1579
asS'2779'
p1580
(lp1581
Vwe
p1582
aVordered
p1583
aVappetizers
p1584
aVgave
p1585
asS'1320'
p1586
(lp1587
VNothing
p1588
aVobvious
p1589
asS'2474'
p1590
(lp1591
Vstuff
p1592
aVfood
p1593
asS'1326'
p1594
(lp1595
Vtreated
p1596
aVfood
p1597
aVfresh
p1598
asS'3003'
p1599
(lp1600
Vfish
p1601
asS'2471'
p1602
(lp1603
sS'1325'
p1604
(lp1605
Vrelaxing
p1606
aVgirlfriend
p1607
asS'983'
p1608
(lp1609
Vlunch
p1610
asS'2772'
p1611
(lp1612
Vmenu
p1613
asS'2478'
p1614
(lp1615
Vdishes
p1616
asS'2785'
p1617
(lp1618
Vstaff
p1619
aVwarm
p1620
asS'2780'
p1621
(lp1622
sS'2782'
p1623
(lp1624
Vaverage
p1625
asS'1851'
p1626
(lp1627
sS'1857'
p1628
(lp1629
Vdrink
p1630
aVspace
p1631
asS'2172'
p1632
(lp1633
sS'918'
p1634
(lp1635
Vgo
p1636
asS'1399'
p1637
(lp1638
Vowner
p1639
aVfood
p1640
asS'1398'
p1641
(lp1642
Vit
p1643
aVchoice
p1644
aVlunch
p1645
asS'917'
p1646
(lp1647
VService
p1648
aVgood
p1649
asS'1528'
p1650
(lp1651
Vfood
p1652
aVhave
p1653
asS'913'
p1654
(lp1655
Vrestaurant
p1656
aVhall
p1657
aVdecour
p1658
asS'2259'
p1659
(lp1660
Vate
p1661
asS'1420'
p1662
(lp1663
sS'2258'
p1664
(lp1665
sS'2608'
p1666
(lp1667
sS'3078'
p1668
(lp1669
sS'1932'
p1670
(lp1671
Vrestaurant
p1672
asS'665'
p1673
(lp1674
Vrecommend
p1675
asS'3262'
p1676
(lp1677
VThey
p1678
aV!!
p1679
asS'2256'
p1680
(lp1681
sS'1939'
p1682
(lp1683
Vgem
p1684
asS'3467'
p1685
(lp1686
Vfood
p1687
asS'3464'
p1688
(lp1689
Vreading
p1690
asS'3463'
p1691
(lp1692
sS'1426'
p1693
(lp1694
Vis
p1695
ag165
aVwas
p1696
asS'3506'
p1697
(lp1698
Vcuisine
p1699
ag165
aVthought
p1700
asS'848'
p1701
(lp1702
sS'2672'
p1703
(lp1704
sS'3365'
p1705
(lp1706
Veverything
p1707
aVOpera
p1708
asS'1417'
p1709
(lp1710
VLassi
p1711
asS'3511'
p1712
(lp1713
Vgentleman
p1714
aVcame
p1715
asS'2928'
p1716
(lp1717
VProblem
p1718
aVnothing
p1719
asS'2564'
p1720
(lp1721
sS'3362'
p1722
(lp1723
Vfamily
p1724
aVKenny
p1725
aVis
p1726
aVpart
p1727
asS'2472'
p1728
(lp1729
VMargaritas
p1730
aVfocus
p1731
asS'3215'
p1732
(lp1733
VHaru
p1734
aVdisgusting
p1735
asS'1985'
p1736
(lp1737
sS'1980'
p1738
(lp1739
sS'1638'
p1740
(lp1741
Vprices
p1742
aVreasonable
p1743
asS'1639'
p1744
(lp1745
Vlist
p1746
asS'1733'
p1747
(lp1748
VDecor
p1749
asS'1735'
p1750
(lp1751
sS'2499'
p1752
(lp1753
sS'980'
p1754
(lp1755
sS'568'
p1756
(lp1757
Vhe
p1758
aVtried
p1759
asS'755'
p1760
(lp1761
sS'560'
p1762
(lp1763
Vmenu
p1764
aVdiverse
p1765
asS'3609'
p1766
(lp1767
sS'758'
p1768
(lp1769
Vfood
p1770
asS'564'
p1771
(lp1772
Vtable
p1773
asS'3071'
p1774
(lp1775
Vtables
p1776
asS'3072'
p1777
(lp1778
VService
p1779
aVprompt
p1780
asS'3073'
p1781
(lp1782
VFood
p1783
asS'1590'
p1784
(lp1785
Vtime
p1786
asS'3171'
p1787
(lp1788
sS'2957'
p1789
(lp1790
Vwaiters
p1791
aVsweet
p1792
aVbill
p1793
aVlarge
p1794
aVfood
p1795
asS'3177'
p1796
(lp1797
VWe
p1798
aVate
p1799
asS'220'
p1800
(lp1801
Vwho
p1802
aVwants
p1803
aVRusse
p1804
asS'1024'
p1805
(lp1806
sS'1027'
p1807
(lp1808
Vsashimi
p1809
aVbottle
p1810
aVsake
p1811
asS'2210'
p1812
(lp1813
Vspicy
p1814
aVtimes
p1815
asS'2216'
p1816
(lp1817
Vprice
p1818
asS'2215'
p1819
(lp1820
Vprices
p1821
aVambience
p1822
aVfun
p1823
aVfood
p1824
aVtasty
p1825
asS'2214'
p1826
(lp1827
sS'1186'
p1828
(lp1829
sS'1187'
p1830
(lp1831
Vit
p1832
aVis
p1833
asS'390'
p1834
(lp1835
Vask
p1836
asS'1748'
p1837
(lp1838
sS'723'
p1839
(lp1840
g165
aVcame
p1841
asS'721'
p1842
(lp1843
Vit
p1844
aVlooks
p1845
asS'2350'
p1846
(lp1847
Vtuna
p1848
asS'1742'
p1849
(lp1850
Vlive
p1851
asS'151'
p1852
(lp1853
sS'1165'
p1854
(lp1855
Vit
p1856
aVworth
p1857
asS'2438'
p1858
(lp1859
sS'1162'
p1860
(lp1861
Vcombination
p1862
aVstrict
p1863
asS'1163'
p1864
(lp1865
Vservice
p1866
asS'1207'
p1867
(lp1868
Vtuna
p1869
aVgari
p1870
asS'1168'
p1871
(lp1872
sS'1169'
p1873
(lp1874
Vbills
p1875
asS'2435'
p1876
(lp1877
g165
aVrecommend
p1878
asS'959'
p1879
(lp1880
Vatmosphere
p1881
aVservice
p1882
aVfriendly
p1883
asS'1366'
p1884
(lp1885
Vgrace
p1886
aVdrinks
p1887
asS'47'
p1888
(lp1889
Vplace
p1890
aVworth
p1891
asS'637'
p1892
(lp1893
Vrooms
p1894
asS'42'
p1895
(lp1896
VHEARTLAND
p1897
asS'87'
p1898
(lp1899
sS'1447'
p1900
(lp1901
VHe
p1902
aVthirsty
p1903
asS'1299'
p1904
(lp1905
sS'639'
p1906
(lp1907
sS'1119'
p1908
(lp1909
Vplace
p1910
aVspecial
p1911
aVmenu
p1912
aVwhat
p1913
aVmade
p1914
asS'934'
p1915
(lp1916
Vmeat
p1917
asS'1297'
p1918
(lp1919
VThey
p1920
aVrude
p1921
asS'1566'
p1922
(lp1923
sS'1295'
p1924
(lp1925
Vservice
p1926
asS'1558'
p1927
(lp1928
Vdeal
p1929
asS'2004'
p1930
(lp1931
Vgo
p1932
asS'1782'
p1933
(lp1934
sS'484'
p1935
(lp1936
sS'482'
p1937
(lp1938
sS'3428'
p1939
(lp1940
Vbe
p1941
asS'1808'
p1942
(lp1943
Vit
p1944
aVservice
p1945
aVtaste
p1946
aVmouth
p1947
asS'2002'
p1948
(lp1949
sS'470'
p1950
(lp1951
sS'2007'
p1952
(lp1953
sS'474'
p1954
(lp1955
sS'479'
p1956
(lp1957
Vsandwhiches
p1958
aVworld
p1959
as.