(dp0
S'3088'
p1
(lp2
Vprice
p3
asS'3258'
p4
(lp5
Vservice
p6
asS'3250'
p7
(lp8
Vfood
p9
asS'3254'
p10
(lp11
Vfood
p12
asS'3558'
p13
(lp14
Vfood
p15
aVservice
p16
asS'346'
p17
(lp18
Vatmosphere
p19
aVprice
p20
asS'341'
p21
(lp22
Vfood
p23
asS'810'
p24
(lp25
sS'3494'
p26
(lp27
sS'817'
p28
(lp29
Vservice
p30
asS'2853'
p31
(lp32
sS'1796'
p33
(lp34
Vservice
p35
asS'1794'
p36
(lp37
Vprice
p38
asS'1491'
p39
(lp40
Vfood
p41
aVambiance
p42
asS'1496'
p43
(lp44
sS'1395'
p45
(lp46
Vfood
p47
asS'1701'
p48
(lp49
Vmilitary_service
p50
asS'1060'
p51
(lp52
Vfood
p53
aVservice
p54
asS'2314'
p55
(lp56
Vservice
p57
asS'2312'
p58
(lp59
Vservice
p60
asS'1669'
p61
(lp62
Vatmosphere
p63
asS'299'
p64
(lp65
Vfood
p66
aVservice
p67
asS'295'
p68
(lp69
Vprice
p70
asS'292'
p71
(lp72
sS'1086'
p73
(lp74
sS'587'
p75
(lp76
sS'195'
p77
(lp78
Vservicing
p79
asS'196'
p80
(lp81
Vmilitary_service
p82
asS'190'
p83
(lp84
sS'192'
p85
(lp86
sS'3679'
p87
(lp88
Vatmosphere
p89
asS'3672'
p90
(lp91
Vmilitary_service
p92
asS'3149'
p93
(lp94
Vprice
p95
asS'3677'
p96
(lp97
Vservice
p98
asS'2989'
p99
(lp100
sS'2547'
p101
(lp102
Vfood
p103
asS'3663'
p104
(lp105
Vfood
p106
asS'2987'
p107
(lp108
Vfood
p109
asS'3022'
p110
(lp111
Vservicing
p112
asS'3388'
p113
(lp114
sS'2268'
p115
(lp116
sS'2382'
p117
(lp118
Vservice
p119
asS'2387'
p120
(lp121
Vfood
p122
aVserve
p123
asS'2389'
p124
(lp125
Vfood
p126
aVservice
p127
asS'2263'
p128
(lp129
Vservice
p130
asS'2261'
p131
(lp132
Vprice
p133
asS'3581'
p134
(lp135
Vfood
p136
asS'3583'
p137
(lp138
Voverhaul
p139
asS'1231'
p140
(lp141
Vfood
p142
asS'1233'
p143
(lp144
sS'441'
p145
(lp146
Vservice
p147
asS'2285'
p148
(lp149
Vfood
p150
asS'2514'
p151
(lp152
sS'2516'
p153
(lp154
Vfood
p155
aVatmosphere
p156
aVservice
p157
asS'902'
p158
(lp159
sS'900'
p160
(lp161
Vambiance
p162
asS'906'
p163
(lp164
sS'1540'
p165
(lp166
sS'904'
p167
(lp168
Vprice
p169
asS'1536'
p170
(lp171
sS'1534'
p172
(lp173
sS'1245'
p174
(lp175
sS'644'
p176
(lp177
sS'3094'
p178
(lp179
sS'3095'
p180
(lp181
Vfood
p182
aVservice
p183
asS'649'
p184
(lp185
sS'1539'
p186
(lp187
sS'2614'
p188
(lp189
Vatmosphere
p190
asS'2611'
p191
(lp192
sS'2610'
p193
(lp194
Vservice
p195
asS'1946'
p196
(lp197
Vambiance
p198
asS'3266'
p199
(lp200
Vprice
p201
aVatmosphere
p202
aVservice
p203
asS'331'
p204
(lp205
Vservice
p206
asS'330'
p207
(lp208
sS'333'
p209
(lp210
Vambiance
p211
aVservice
p212
asS'1908'
p213
(lp214
Vatmosphere
p215
aVservice
p216
asS'3296'
p217
(lp218
Vfood
p219
aVprice
p220
asS'1905'
p221
(lp222
sS'1902'
p223
(lp224
Vfood
p225
asS'3450'
p226
(lp227
sS'3518'
p228
(lp229
Vservice
p230
asS'3457'
p231
(lp232
Vprice
p233
asS'3458'
p234
(lp235
sS'3510'
p236
(lp237
Vfood
p238
aVambiance
p239
aVservice
p240
asS'2686'
p241
(lp242
Vatmosphere
p243
aVservice
p244
asS'2246'
p245
(lp246
Vservice
p247
asS'1993'
p248
(lp249
sS'1992'
p250
(lp251
sS'1627'
p252
(lp253
Vservice
p254
asS'1997'
p255
(lp256
Vfood
p257
aVservice
p258
asS'3200'
p259
(lp260
sS'1462'
p261
(lp262
Vservice
p263
asS'559'
p264
(lp265
sS'3638'
p266
(lp267
Vfood
p268
aVprice
p269
asS'747'
p270
(lp271
sS'555'
p272
(lp273
Vatmosphere
p274
asS'3634'
p275
(lp276
sS'3632'
p277
(lp278
sS'3633'
p279
(lp280
Vfood
p281
aVservice
p282
asS'3017'
p283
(lp284
Vfood
p285
aVservice
p286
asS'3063'
p287
(lp288
sS'2948'
p289
(lp290
sS'2945'
p291
(lp292
Vmilitary_service
p293
asS'236'
p294
(lp295
Vprice
p296
asS'1053'
p297
(lp298
Vfood
p299
asS'2341'
p300
(lp301
sS'2226'
p302
(lp303
Vfood
p304
aVmonetary_value
p305
asS'2224'
p306
(lp307
sS'3341'
p308
(lp309
Vfood
p310
aVambiance
p311
asS'1195'
p312
(lp313
Vfood
p314
aVmonetary_value
p315
asS'3344'
p316
(lp317
Vservice
p318
asS'1693'
p319
(lp320
sS'1756'
p321
(lp322
sS'1699'
p323
(lp324
Vfood
p325
asS'1177'
p326
(lp327
sS'147'
p328
(lp329
Vfood
p330
aVprice
p331
asS'140'
p332
(lp333
sS'1170'
p334
(lp335
Vservice
p336
asS'2701'
p337
(lp338
Vfood
p339
aVservice
p340
asS'611'
p341
(lp342
sS'617'
p343
(lp344
sS'1178'
p345
(lp346
sS'3708'
p347
(lp348
sS'1885'
p349
(lp350
sS'2856'
p351
(lp352
Vambiance
p353
asS'1882'
p354
(lp355
sS'3704'
p356
(lp357
sS'1285'
p358
(lp359
Vfood
p360
aVprice
p361
asS'2088'
p362
(lp363
sS'2122'
p364
(lp365
Vfood
p366
aVatmosphere
p367
asS'949'
p368
(lp369
Vfood
p370
asS'3117'
p371
(lp372
Vfood
p373
asS'2083'
p374
(lp375
Vfood
p376
asS'944'
p377
(lp378
Vfood
p379
aVprice
p380
asS'945'
p381
(lp382
Vservice
p383
asS'1289'
p384
(lp385
sS'943'
p386
(lp387
sS'941'
p388
(lp389
Vfood
p390
aVservice
p391
asS'2539'
p392
(lp393
Vfood
p394
aVservice
p395
asS'517'
p396
(lp397
Vservice
p398
asS'1572'
p399
(lp400
Vservice
p401
asS'687'
p402
(lp403
sS'2535'
p404
(lp405
sS'2712'
p406
(lp407
Vservice
p408
asS'2710'
p409
(lp410
sS'1192'
p411
(lp412
Vfood
p413
asS'1300'
p414
(lp415
sS'3103'
p416
(lp417
Vfood
p418
asS'2714'
p419
(lp420
Vfood
p421
asS'622'
p422
(lp423
Vatmosphere
p424
aVprice
p425
asS'2652'
p426
(lp427
Vatmosphere
p428
aVserve
p429
aVservice
p430
asS'2655'
p431
(lp432
sS'137'
p433
(lp434
Vatmosphere
p435
aVprice
p436
asS'490'
p437
(lp438
sS'3419'
p439
(lp440
Vprice
p441
aVoverhaul
p442
asS'1839'
p443
(lp444
Vfood
p445
aVservice
p446
asS'29'
p447
(lp448
Vmilitary_service
p449
asS'407'
p450
(lp451
Vfood
p452
aVprice
p453
asS'2407'
p454
(lp455
Vatmosphere
p456
asS'2156'
p457
(lp458
sS'938'
p459
(lp460
sS'403'
p461
(lp462
Vfood
p463
asS'2403'
p464
(lp465
sS'2400'
p466
(lp467
Vfood
p468
aVservice
p469
asS'2153'
p470
(lp471
sS'930'
p472
(lp473
Vfood
p474
asS'937'
p475
(lp476
Vmonetary_value
p477
asS'936'
p478
(lp479
Vprice
p480
asS'935'
p481
(lp482
sS'2409'
p483
(lp484
Vservice
p485
asS'414'
p486
(lp487
Vfood
p488
asS'1952'
p489
(lp490
Vfood
p491
aVservice
p492
asS'3567'
p493
(lp494
Vfood
p495
asS'3242'
p496
(lp497
sS'3247'
p498
(lp499
Vfood
p500
asS'3245'
p501
(lp502
Vfood
p503
aVprice
p504
asS'378'
p505
(lp506
Vfood
p507
asS'827'
p508
(lp509
Vfood
p510
aVservice
p511
asS'826'
p512
(lp513
sS'1063'
p514
(lp515
Vfood
p516
asS'822'
p517
(lp518
Vservice
p519
asS'704'
p520
(lp521
Vfood
p522
aVmonetary_value
p523
asS'705'
p524
(lp525
Vfood
p526
aVatmosphere
p527
aVservice
p528
asS'706'
p529
(lp530
sS'1483'
p531
(lp532
Vfood
p533
asS'1480'
p534
(lp535
sS'397'
p536
(lp537
Vfood
p538
asS'1485'
p539
(lp540
Vfood
p541
asS'394'
p542
(lp543
Vfood
p544
aVservice
p545
asS'3306'
p546
(lp547
sS'3303'
p548
(lp549
Vfood
p550
asS'2309'
p551
(lp552
sS'928'
p553
(lp554
Vfood
p555
aVoverhaul
p556
asS'1710'
p557
(lp558
Vservice
p559
asS'1717'
p560
(lp561
Vservice
p562
asS'1716'
p563
(lp564
Vatmosphere
p565
aVservice
p566
asS'1715'
p567
(lp568
sS'1718'
p569
(lp570
sS'2305'
p571
(lp572
sS'2798'
p573
(lp574
sS'2169'
p575
(lp576
sS'1653'
p577
(lp578
sS'2289'
p579
(lp580
Vprice
p581
aVservice
p582
asS'1139'
p583
(lp584
sS'3666'
p585
(lp586
sS'580'
p587
(lp588
Vprice
p589
asS'3662'
p590
(lp591
Vfood
p592
aVservice
p593
asS'2281'
p594
(lp595
sS'3668'
p596
(lp597
Vservice
p598
asS'588'
p599
(lp600
Vfood
p601
aVatmosphere
p602
asS'1633'
p603
(lp604
sS'2838'
p605
(lp606
sS'3159'
p607
(lp608
Vfood
p609
aVprice
p610
asS'2834'
p611
(lp612
sS'3107'
p613
(lp614
sS'2275'
p615
(lp616
Vatmosphere
p617
aVambiance
p618
asS'3019'
p619
(lp620
Vserve
p621
aVservice
p622
asS'1430'
p623
(lp624
Vatmosphere
p625
asS'418'
p626
(lp627
Vprice
p628
asS'2574'
p629
(lp630
Vfood
p631
asS'3016'
p632
(lp633
Vfood
p634
aVprice
p635
asS'2573'
p636
(lp637
sS'3014'
p638
(lp639
Vprice
p640
aVservice
p641
asS'2571'
p642
(lp643
Vfood
p644
aVatmosphere
p645
asS'2378'
p646
(lp647
Vfood
p648
aVservice
p649
asS'2379'
p650
(lp651
Vfood
p652
asS'512'
p653
(lp654
Vfood
p655
asS'1003'
p656
(lp657
sS'1001'
p658
(lp659
Vatmosphere
p660
asS'1349'
p661
(lp662
Vfood
p663
aVservice
p664
asS'3590'
p665
(lp666
sS'2590'
p667
(lp668
sS'3595'
p669
(lp670
sS'629'
p671
(lp672
sS'2051'
p673
(lp674
Vservice
p675
asS'974'
p676
(lp677
Vatmosphere
p678
aVservice
p679
asS'971'
p680
(lp681
Vfood
p682
asS'970'
p683
(lp684
sS'3696'
p685
(lp686
sS'182'
p687
(lp688
sS'180'
p689
(lp690
Vfood
p691
asS'3089'
p692
(lp693
Vservice
p694
asS'1507'
p695
(lp696
Vservice
p697
asS'650'
p698
(lp699
Vprice
p700
asS'185'
p701
(lp702
Vfood
p703
aVservice
p704
asS'1508'
p705
(lp706
Vservice
p707
asS'2114'
p708
(lp709
sS'2116'
p710
(lp711
Vfood
p712
asS'659'
p713
(lp714
sS'2623'
p715
(lp716
Vatmosphere
p717
asS'1123'
p718
(lp719
Vfood
p720
aVservice
p721
asS'2624'
p722
(lp723
Vfood
p724
aVatmosphere
p725
aVprice
p726
asS'3526'
p727
(lp728
Vservice
p729
asS'3520'
p730
(lp731
sS'3087'
p732
(lp733
Vfood
p734
asS'1917'
p735
(lp736
Vfood
p737
aVprice
p738
asS'862'
p739
(lp740
Vservice
p741
asS'867'
p742
(lp743
sS'2129'
p744
(lp745
sS'2699'
p746
(lp747
sS'2696'
p748
(lp749
Vfood
p750
aVservice
p751
asS'2029'
p752
(lp753
Vatmosphere
p754
asS'885'
p755
(lp756
Vfood
p757
aVatmosphere
p758
asS'888'
p759
(lp760
Vfood
p761
aVprice
p762
asS'278'
p763
(lp764
Vatmosphere
p765
asS'279'
p766
(lp767
Vfood
p768
aVatmosphere
p769
aVambiance
p770
asS'3233'
p771
(lp772
sS'1966'
p773
(lp774
Vatmosphere
p775
asS'188'
p776
(lp777
Vservice
p778
asS'1960'
p779
(lp780
sS'1613'
p781
(lp782
sS'1610'
p783
(lp784
Vfood
p785
asS'328'
p786
(lp787
Vfood
p788
aVprice
p789
aVatmosphere
p790
aVservice
p791
asS'562'
p792
(lp793
Vfood
p794
asS'774'
p795
(lp796
sS'777'
p797
(lp798
Vprice
p799
asS'2877'
p800
(lp801
Vservicing
p802
aVservice
p803
asS'2876'
p804
(lp805
Vfood
p806
aVservice
p807
asS'206'
p808
(lp809
Vfood
p810
aVprice
p811
asS'3625'
p812
(lp813
sS'3355'
p814
(lp815
Vfood
p816
asS'2979'
p817
(lp818
Vfood
p819
asS'72'
p820
(lp821
Vservice
p822
asS'71'
p823
(lp824
Vfood
p825
aVprice
p826
aVatmosphere
p827
aVservice
p828
asS'2546'
p829
(lp830
sS'1047'
p831
(lp832
Vservice
p833
asS'2235'
p834
(lp835
Vfood
p836
asS'1683'
p837
(lp838
Vfood
p839
aVservice
p840
asS'1687'
p841
(lp842
sS'1766'
p843
(lp844
Vfood
p845
asS'1146'
p846
(lp847
sS'3289'
p848
(lp849
sS'1148'
p850
(lp851
sS'3479'
p852
(lp853
sS'3171'
p854
(lp855
sS'2096'
p856
(lp857
Vatmosphere
p858
asS'2093'
p859
(lp860
Vservice
p861
asS'3652'
p862
(lp863
Vmonetary_value
p864
asS'2526'
p865
(lp866
Vmonetary_value
p867
aVservice
p868
asS'1302'
p869
(lp870
Vserve
p871
aVmonetary_value
p872
asS'2488'
p873
(lp874
sS'695'
p875
(lp876
Vambiance
p877
aVservice
p878
asS'3120'
p879
(lp880
Vfood
p881
asS'543'
p882
(lp883
sS'527'
p884
(lp885
Vfood
p886
aVserve
p887
asS'547'
p888
(lp889
sS'544'
p890
(lp891
Vfood
p892
aVservice
p893
asS'1467'
p894
(lp895
Vservice
p896
asS'1466'
p897
(lp898
Vfood
p899
aVprice
p900
aVservice
p901
asS'2241'
p902
(lp903
sS'2243'
p904
(lp905
Vfood
p906
aVprice
p907
aVmonetary_value
p908
aVservice
p909
asS'997'
p910
(lp911
sS'2467'
p912
(lp913
sS'2461'
p914
(lp915
Vfood
p916
aVoverhaul
p917
asS'992'
p918
(lp919
Vfood
p920
asS'2704'
p921
(lp922
sS'2468'
p923
(lp924
sS'126'
p925
(lp926
Vservice
p927
asS'1020'
p928
(lp929
Vfood
p930
aVprice
p931
asS'3379'
p932
(lp933
Vatmosphere
p934
aVambiance
p935
asS'2068'
p936
(lp937
sS'2146'
p938
(lp939
Vfood
p940
aVatmosphere
p941
aVmilitary_service
p942
asS'2145'
p943
(lp944
sS'411'
p945
(lp946
Vprice
p947
aVambiance
p948
asS'413'
p949
(lp950
Vserve
p951
asS'2060'
p952
(lp953
Vservice
p954
asS'922'
p955
(lp956
Vservice
p957
asS'2796'
p958
(lp959
Vfood
p960
asS'419'
p961
(lp962
sS'2066'
p963
(lp964
sS'313'
p965
(lp966
sS'317'
p967
(lp968
sS'314'
p969
(lp970
Vfood
p971
aVprice
p972
asS'1920'
p973
(lp974
Vprice
p975
asS'1921'
p976
(lp977
Vfood
p978
aVservice
p979
asS'448'
p980
(lp981
Vfood
p982
aVserve
p983
asS'3272'
p984
(lp985
Vservice
p986
asS'832'
p987
(lp988
sS'3473'
p989
(lp990
Vfood
p991
asS'3570'
p992
(lp993
Vmilitary_service
p994
aVservice
p995
asS'2359'
p996
(lp997
Vfood
p998
aVambiance
p999
aVservice
p1000
asS'722'
p1001
(lp1002
Vfood
p1003
aVatmosphere
p1004
asS'363'
p1005
(lp1006
Vprice
p1007
asS'2937'
p1008
(lp1009
Vfood
p1010
aVservice
p1011
asS'2933'
p1012
(lp1013
sS'2931'
p1014
(lp1015
Vfood
p1016
aVprice
p1017
aVambiance
p1018
asS'382'
p1019
(lp1020
Vfood
p1021
asS'3313'
p1022
(lp1023
Vprice
p1024
asS'444'
p1025
(lp1026
Vservice
p1027
asS'784'
p1028
(lp1029
Vatmosphere
p1030
asS'785'
p1031
(lp1032
Vatmosphere
p1033
aVservice
p1034
asS'2065'
p1035
(lp1036
Vservice
p1037
asS'1643'
p1038
(lp1039
sS'1642'
p1040
(lp1041
Vserve
p1042
asS'1649'
p1043
(lp1044
Vfood
p1045
asS'2692'
p1046
(lp1047
Vfood
p1048
aVmilitary_service
p1049
asS'3617'
p1050
(lp1051
Vambiance
p1052
asS'3619'
p1053
(lp1054
sS'571'
p1055
(lp1056
Vatmosphere
p1057
asS'2954'
p1058
(lp1059
Vambiance
p1060
asS'60'
p1061
(lp1062
sS'2195'
p1063
(lp1064
Vfood
p1065
aVservice
p1066
asS'3168'
p1067
(lp1068
Vfood
p1069
aVatmosphere
p1070
aVservice
p1071
asS'2197'
p1072
(lp1073
Vfood
p1074
aVprice
p1075
aVatmosphere
p1076
asS'2198'
p1077
(lp1078
Vprice
p1079
asS'2199'
p1080
(lp1081
sS'3162'
p1082
(lp1083
Vambiance
p1084
asS'2807'
p1085
(lp1086
Vatmosphere
p1087
asS'2569'
p1088
(lp1089
Vservice
p1090
asS'2406'
p1091
(lp1092
Vfood
p1093
asS'1423'
p1094
(lp1095
Vfood
p1096
aVoverhaul
p1097
aVservice
p1098
asS'2207'
p1099
(lp1100
Vprice
p1101
aVambiance
p1102
asS'3364'
p1103
(lp1104
Vservice
p1105
asS'1428'
p1106
(lp1107
Vfood
p1108
aVprice
p1109
asS'3366'
p1110
(lp1111
Vfood
p1112
asS'1373'
p1113
(lp1114
sS'1584'
p1115
(lp1116
Vservice
p1117
asS'1038'
p1118
(lp1119
Vservice
p1120
asS'732'
p1121
(lp1122
Vfood
p1123
aVservice
p1124
asS'508'
p1125
(lp1126
sS'739'
p1127
(lp1128
Vprice
p1129
aVservice
p1130
asS'1030'
p1131
(lp1132
Vmilitary_service
p1133
aVservice
p1134
asS'2151'
p1135
(lp1136
Vprice
p1137
asS'2428'
p1138
(lp1139
sS'1358'
p1140
(lp1141
Vmonetary_value
p1142
asS'468'
p1143
(lp1144
Vfood
p1145
aVatmosphere
p1146
aVservice
p1147
asS'2580'
p1148
(lp1149
Vservice
p1150
asS'1171'
p1151
(lp1152
sS'464'
p1153
(lp1154
Vfood
p1155
aVatmosphere
p1156
aVservice
p1157
asS'1351'
p1158
(lp1159
Vservice
p1160
asS'2423'
p1161
(lp1162
Vfood
p1163
aVprice
p1164
asS'402'
p1165
(lp1166
Vfood
p1167
asS'463'
p1168
(lp1169
sS'608'
p1170
(lp1171
Vfood
p1172
aVprice
p1173
aVambiance
p1174
asS'164'
p1175
(lp1176
sS'167'
p1177
(lp1178
Vfood
p1179
asS'966'
p1180
(lp1181
Vprice
p1182
asS'2898'
p1183
(lp1184
Vatmosphere
p1185
asS'783'
p1186
(lp1187
sS'969'
p1188
(lp1189
sS'3685'
p1190
(lp1191
Vprice
p1192
asS'2109'
p1193
(lp1194
Vservice
p1195
asS'1102'
p1196
(lp1197
sS'1518'
p1198
(lp1199
Vatmosphere
p1200
asS'2103'
p1201
(lp1202
Vfood
p1203
aVprice
p1204
asS'1517'
p1205
(lp1206
Vatmosphere
p1207
asS'2100'
p1208
(lp1209
sS'1109'
p1210
(lp1211
Vfood
p1212
aVservice
p1213
asS'2730'
p1214
(lp1215
sS'2635'
p1216
(lp1217
sS'2739'
p1218
(lp1219
sS'3533'
p1220
(lp1221
Vatmosphere
p1222
asS'1158'
p1223
(lp1224
sS'1816'
p1225
(lp1226
Vservice
p1227
asS'1811'
p1228
(lp1229
Vfood
p1230
asS'2121'
p1231
(lp1232
Vfood
p1233
aVservice
p1234
asS'2437'
p1235
(lp1236
sS'875'
p1237
(lp1238
Vprice
p1239
aVservice
p1240
asS'1818'
p1241
(lp1242
sS'2794'
p1243
(lp1244
sS'871'
p1245
(lp1246
Vfood
p1247
aVservice
p1248
asS'2742'
p1249
(lp1250
Vfood
p1251
asS'3181'
p1252
(lp1253
sS'3183'
p1254
(lp1255
sS'2748'
p1256
(lp1257
Vfood
p1258
aVservice
p1259
asS'3482'
p1260
(lp1261
sS'647'
p1262
(lp1263
Vfood
p1264
asS'897'
p1265
(lp1266
sS'899'
p1267
(lp1268
Vfood
p1269
asS'646'
p1270
(lp1271
sS'671'
p1272
(lp1273
Vservice
p1274
asS'2165'
p1275
(lp1276
Vfood
p1277
asS'3545'
p1278
(lp1279
sS'1601'
p1280
(lp1281
Vfood
p1282
asS'3224'
p1283
(lp1284
Vfood
p1285
asS'1974'
p1286
(lp1287
Vfood
p1288
aVambiance
p1289
asS'1605'
p1290
(lp1291
sS'355'
p1292
(lp1293
sS'353'
p1294
(lp1295
Vfood
p1296
asS'352'
p1297
(lp1298
sS'950'
p1299
(lp1300
sS'802'
p1301
(lp1302
Vfood
p1303
asS'1614'
p1304
(lp1305
Vservice
p1306
asS'216'
p1307
(lp1308
Vservice
p1309
asS'214'
p1310
(lp1311
Vfood
p1312
asS'1967'
p1313
(lp1314
sS'213'
p1315
(lp1316
Vfood
p1317
aVservice
p1318
asS'210'
p1319
(lp1320
sS'2847'
p1321
(lp1322
Vfood
p1323
aVprice
p1324
aVservice
p1325
asS'2844'
p1326
(lp1327
Vservice
p1328
asS'2968'
p1329
(lp1330
sS'3323'
p1331
(lp1332
sS'3326'
p1333
(lp1334
sS'3043'
p1335
(lp1336
Vfood
p1337
aVserve
p1338
asS'41'
p1339
(lp1340
sS'3044'
p1341
(lp1342
sS'3046'
p1343
(lp1344
Vservice
p1345
asS'2323'
p1346
(lp1347
sS'2321'
p1348
(lp1349
Vatmosphere
p1350
asS'2320'
p1351
(lp1352
Vprice
p1353
aVmilitary_service
p1354
aVservice
p1355
asS'1770'
p1356
(lp1357
Vfood
p1358
aVserve
p1359
asS'2325'
p1360
(lp1361
Vfood
p1362
aVservice
p1363
asS'1778'
p1364
(lp1365
Vfood
p1366
aVatmosphere
p1367
asS'334'
p1368
(lp1369
Vfood
p1370
aVambiance
p1371
asS'1676'
p1372
(lp1373
sS'3488'
p1374
(lp1375
sS'1097'
p1376
(lp1377
Voverhaul
p1378
aVservice
p1379
asS'679'
p1380
(lp1381
sS'1093'
p1382
(lp1383
Vambiance
p1384
aVservice
p1385
asS'1154'
p1386
(lp1387
sS'1156'
p1388
(lp1389
Vservice
p1390
asS'1150'
p1391
(lp1392
Vservice
p1393
asS'3487'
p1394
(lp1395
sS'260'
p1396
(lp1397
Vservice
p1398
asS'3133'
p1399
(lp1400
Vfood
p1401
aVservice
p1402
asS'3647'
p1403
(lp1404
sS'2998'
p1405
(lp1406
Vfood
p1407
aVatmosphere
p1408
aVambiance
p1409
asS'2553'
p1410
(lp1411
sS'3038'
p1412
(lp1413
Vmilitary_service
p1414
asS'1977'
p1415
(lp1416
sS'1556'
p1417
(lp1418
sS'2991'
p1419
(lp1420
Vfood
p1421
aVservice
p1422
asS'57'
p1423
(lp1424
sS'2492'
p1425
(lp1426
sS'3030'
p1427
(lp1428
sS'2995'
p1429
(lp1430
Vfood
p1431
asS'2390'
p1432
(lp1433
Vfood
p1434
aVservice
p1435
asS'54'
p1436
(lp1437
Vatmosphere
p1438
aVservice
p1439
asS'1411'
p1440
(lp1441
sS'2252'
p1442
(lp1443
Vprice
p1444
asS'1416'
p1445
(lp1446
sS'2399'
p1447
(lp1448
Vatmosphere
p1449
asS'2779'
p1450
(lp1451
Vfood
p1452
aVprice
p1453
asS'1320'
p1454
(lp1455
Vfood
p1456
asS'2474'
p1457
(lp1458
Vfood
p1459
asS'1326'
p1460
(lp1461
Vfood
p1462
aVprice
p1463
asS'3003'
p1464
(lp1465
Vfood
p1466
asS'2471'
p1467
(lp1468
sS'1325'
p1469
(lp1470
Vprice
p1471
aVservice
p1472
asS'983'
p1473
(lp1474
Vfood
p1475
asS'2772'
p1476
(lp1477
Vfood
p1478
asS'2478'
p1479
(lp1480
Vservice
p1481
asS'2785'
p1482
(lp1483
Vprice
p1484
aVmilitary_service
p1485
asS'2780'
p1486
(lp1487
sS'2782'
p1488
(lp1489
Vfood
p1490
asS'1851'
p1491
(lp1492
sS'1857'
p1493
(lp1494
Vfood
p1495
aVambiance
p1496
asS'2172'
p1497
(lp1498
sS'918'
p1499
(lp1500
Vservice
p1501
asS'1399'
p1502
(lp1503
Vfood
p1504
aVservice
p1505
asS'1398'
p1506
(lp1507
Vfood
p1508
aVservice
p1509
asS'917'
p1510
(lp1511
Vprice
p1512
aVservice
p1513
asS'1528'
p1514
(lp1515
Vfood
p1516
aVservice
p1517
asS'913'
p1518
(lp1519
Vservice
p1520
asS'2259'
p1521
(lp1522
Vfood
p1523
asS'1420'
p1524
(lp1525
sS'2258'
p1526
(lp1527
sS'2608'
p1528
(lp1529
sS'1932'
p1530
(lp1531
Vservice
p1532
asS'665'
p1533
(lp1534
Vprice
p1535
asS'3262'
p1536
(lp1537
sS'2256'
p1538
(lp1539
sS'1939'
p1540
(lp1541
Vfood
p1542
asS'3467'
p1543
(lp1544
Vfood
p1545
asS'3464'
p1546
(lp1547
Vservice
p1548
asS'3463'
p1549
(lp1550
sS'1426'
p1551
(lp1552
Vfood
p1553
aVprice
p1554
aVambiance
p1555
asS'3506'
p1556
(lp1557
Vfood
p1558
aVoverhaul
p1559
asS'848'
p1560
(lp1561
sS'2672'
p1562
(lp1563
sS'3365'
p1564
(lp1565
Vservice
p1566
asS'1417'
p1567
(lp1568
sS'3511'
p1569
(lp1570
Vprice
p1571
aVservice
p1572
asS'2928'
p1573
(lp1574
Vfood
p1575
aVatmosphere
p1576
asS'2564'
p1577
(lp1578
sS'3362'
p1579
(lp1580
Vprice
p1581
aVmilitary_service
p1582
aVservice
p1583
asS'2472'
p1584
(lp1585
Vfood
p1586
aVprice
p1587
asS'3215'
p1588
(lp1589
Vprice
p1590
asS'1985'
p1591
(lp1592
sS'1980'
p1593
(lp1594
sS'1638'
p1595
(lp1596
Vfood
p1597
aVmonetary_value
p1598
asS'1639'
p1599
(lp1600
Vprice
p1601
asS'1733'
p1602
(lp1603
Vservice
p1604
asS'1735'
p1605
(lp1606
sS'2499'
p1607
(lp1608
sS'980'
p1609
(lp1610
sS'568'
p1611
(lp1612
Vfood
p1613
aVprice
p1614
asS'755'
p1615
(lp1616
sS'560'
p1617
(lp1618
Vfood
p1619
asS'3609'
p1620
(lp1621
sS'758'
p1622
(lp1623
Vfood
p1624
asS'564'
p1625
(lp1626
Vfood
p1627
asS'3071'
p1628
(lp1629
Vfood
p1630
asS'3072'
p1631
(lp1632
Vservice
p1633
asS'3073'
p1634
(lp1635
Vfood
p1636
asS'1590'
p1637
(lp1638
Vatmosphere
p1639
asS'3078'
p1640
(lp1641
sS'2957'
p1642
(lp1643
Vfood
p1644
aVatmosphere
p1645
aVservice
p1646
asS'3177'
p1647
(lp1648
Vfood
p1649
asS'220'
p1650
(lp1651
Vatmosphere
p1652
aVmilitary_service
p1653
asS'1024'
p1654
(lp1655
sS'1027'
p1656
(lp1657
Vfood
p1658
aVservice
p1659
asS'2210'
p1660
(lp1661
Vfood
p1662
aVservice
p1663
asS'2216'
p1664
(lp1665
Vmonetary_value
p1666
asS'2215'
p1667
(lp1668
Vfood
p1669
aVatmosphere
p1670
aVmonetary_value
p1671
aVservice
p1672
asS'2214'
p1673
(lp1674
sS'1186'
p1675
(lp1676
sS'1187'
p1677
(lp1678
Vfood
p1679
aVprice
p1680
asS'390'
p1681
(lp1682
Vprice
p1683
asS'1748'
p1684
(lp1685
sS'723'
p1686
(lp1687
Vfood
p1688
aVprice
p1689
asS'721'
p1690
(lp1691
Vfood
p1692
aVatmosphere
p1693
asS'2350'
p1694
(lp1695
Vfood
p1696
asS'1742'
p1697
(lp1698
Vprice
p1699
asS'151'
p1700
(lp1701
sS'1165'
p1702
(lp1703
Vfood
p1704
aVprice
p1705
asS'2438'
p1706
(lp1707
sS'1162'
p1708
(lp1709
Vfood
p1710
aVmilitary_service
p1711
asS'1163'
p1712
(lp1713
Vservice
p1714
asS'1207'
p1715
(lp1716
Vfood
p1717
aVservice
p1718
asS'1168'
p1719
(lp1720
sS'1169'
p1721
(lp1722
Vservice
p1723
asS'2435'
p1724
(lp1725
Vfood
p1726
aVprice
p1727
asS'959'
p1728
(lp1729
Vatmosphere
p1730
aVmilitary_service
p1731
aVservice
p1732
asS'1366'
p1733
(lp1734
Vfood
p1735
aVatmosphere
p1736
asS'47'
p1737
(lp1738
Vatmosphere
p1739
aVprice
p1740
asS'637'
p1741
(lp1742
Vmilitary_service
p1743
asS'42'
p1744
(lp1745
Vambiance
p1746
asS'87'
p1747
(lp1748
sS'1447'
p1749
(lp1750
Vfood
p1751
asS'1299'
p1752
(lp1753
sS'639'
p1754
(lp1755
sS'1119'
p1756
(lp1757
Vfood
p1758
aVatmosphere
p1759
aVprice
p1760
asS'934'
p1761
(lp1762
Vfood
p1763
asS'1297'
p1764
(lp1765
Vfood
p1766
asS'1566'
p1767
(lp1768
sS'1295'
p1769
(lp1770
Vservice
p1771
asS'1558'
p1772
(lp1773
Vservice
p1774
asS'2004'
p1775
(lp1776
Vservice
p1777
asS'1782'
p1778
(lp1779
sS'484'
p1780
(lp1781
sS'482'
p1782
(lp1783
sS'3428'
p1784
(lp1785
Vfood
p1786
asS'1808'
p1787
(lp1788
Vfood
p1789
aVservice
p1790
asS'2002'
p1791
(lp1792
sS'470'
p1793
(lp1794
sS'2007'
p1795
(lp1796
sS'474'
p1797
(lp1798
sS'479'
p1799
(lp1800
Vfood
p1801
as.