(dp0
S'3088'
p1
(dp2
Vkamasutra
p3
S'neutral'
p4
ssS'3258'
p5
(dp6
Vrestaurants
p7
S'positive'
p8
ssS'3250'
p9
(dp10
Vliving
p11
g4
ssS'3254'
p12
(dp13
Vfood
p14
g8
ssS'3558'
p15
(dp16
Vmanna
p17
g4
sVdishes
p18
g4
ssS'346'
p19
(dp20
Vis
p21
g4
sVplace
p22
g8
ssS'341'
p23
(dp24
Vseasoning
p25
g8
sVbland
p26
g4
sVsushi
p27
S'negative'
p28
ssS'810'
p29
(dp30
sS'3494'
p31
(dp32
sS'817'
p33
(dp34
Vwaiter
p35
g28
ssS'2853'
p36
(dp37
sS'1796'
p38
(dp39
Vguys
p40
g4
ssS'1794'
p41
(dp42
Voverpriced
p43
g4
ssS'1491'
p44
(dp45
Vsauce
p46
g28
sVcrust
p47
g8
sVdelicious
p48
g4
ssS'1496'
p49
(dp50
sS'1395'
p51
(dp52
Vmost
p53
g4
ssS'1701'
p54
(dp55
VWinnie
p56
g8
sVcrew
p57
g28
ssS'1060'
p58
(dp59
Vgreat
p60
g4
sVSpreads
p61
g4
ssS'2314'
p62
(dp63
Vgreat
p64
g4
sVservice
p65
g4
ssS'2312'
p66
(dp67
Vgoing
p68
g4
ssS'1669'
p69
(dp70
Vplace
p71
g4
ssS'299'
p72
(dp73
Vbenedict
p74
g28
sVservice
p75
g4
ssS'295'
p76
(dp77
VEverything
p78
g4
sVup
p79
g4
ssS'292'
p80
(dp81
sS'1086'
p82
(dp83
sS'587'
p84
(dp85
sS'195'
p86
(dp87
Vweather
p88
g4
ssS'196'
p89
(dp90
Vstaff
p91
g8
ssS'190'
p92
(dp93
sS'192'
p94
(dp95
sS'3679'
p96
(dp97
Vplace
p98
g8
ssS'3672'
p99
(dp100
Vstaff
p101
g8
ssS'3149'
p102
(dp103
Vcame
p104
g4
ssS'3677'
p105
(dp106
Vplate
p107
g4
ssS'2989'
p108
(dp109
sS'2547'
p110
(dp111
VSpecials
p112
g4
sVGnochi
p113
g4
ssS'3663'
p114
(dp115
Vdessert
p116
g8
ssS'2987'
p117
(dp118
Vfood
p119
g8
ssS'3022'
p120
(dp121
Vlove
p122
g4
ssS'3388'
p123
(dp124
sS'2268'
p125
(dp126
sS'2382'
p127
(dp128
Vtry
p129
g4
sVfetish
p130
g8
sVyou
p131
g4
ssS'2387'
p132
(dp133
VSeveral
p134
g4
sVhad
p135
g4
ssS'2389'
p136
(dp137
Vdish
p138
g28
sVfood
p139
g28
ssS'2263'
p140
(dp141
Vservice
p142
g4
ssS'2261'
p143
(dp144
Vlist
p145
g4
ssS'3581'
p146
(dp147
Vcheeseburgers
p148
g4
ssS'3583'
p149
(dp150
Vfell
p151
g4
ssS'1231'
p152
(dp153
Vbagels
p154
g8
ssS'1233'
p155
(dp156
VHH
p157
g4
ssS'441'
p158
(dp159
Vservice
p160
g4
ssS'2285'
p161
(dp162
Vfood
p163
g4
ssS'2514'
p164
(dp165
sS'2516'
p166
(dp167
VI
p168
g4
sVgo
p169
g4
sVplace
p170
g4
ssS'902'
p171
(dp172
sS'900'
p173
(dp174
VInterior
p175
g4
sVwas
p176
g4
ssS'906'
p177
(dp178
sS'1540'
p179
(dp180
sS'904'
p181
(dp182
Vgotten
p183
g4
ssS'1536'
p184
(dp185
sS'1534'
p186
(dp187
sS'1245'
p188
(dp189
sS'644'
p190
(dp191
sS'3094'
p192
(dp193
sS'3095'
p194
(dp195
g168
g4
sVfan
p196
g4
sVpaneer
p197
g4
ssS'649'
p198
(dp199
sS'1539'
p200
(dp201
sS'2614'
p202
(dp203
Vplace
p204
g28
ssS'2611'
p205
(dp206
sS'2610'
p207
(dp208
Vtoppings
p209
g4
ssS'1946'
p210
(dp211
VVillage
p212
g4
ssS'3266'
p213
(dp214
Vsimplicity
p215
g8
sVKai
p216
g4
sVsomeone
p217
g28
sVplace
p218
g4
sVelegance
p219
g4
ssS'331'
p220
(dp221
Vfriend
p222
g8
ssS'330'
p223
(dp224
sS'333'
p225
(dp226
VBoy
p227
g4
sVwas
p228
g4
ssS'1908'
p229
(dp230
Vrestaraurant
p231
g4
sVreservations
p232
g4
sVsmall
p233
g4
ssS'3296'
p234
(dp235
Vit
p236
g4
sVcrowded
p237
g4
ssS'1905'
p238
(dp239
sS'1902'
p240
(dp241
VSteak
p242
g8
ssS'3450'
p243
(dp244
sS'3518'
p245
(dp246
VEw
p247
g4
ssS'3457'
p248
(dp249
Vwe
p250
g4
sVwalked
p251
g4
ssS'3458'
p252
(dp253
sS'3510'
p254
(dp255
Vwas
p256
g4
sVexperience
p257
g8
sVrestaurant
p258
g4
ssS'2686'
p259
(dp260
Vplace
p261
g8
sVservice
p262
g4
ssS'2246'
p263
(dp264
Vgo
p265
g4
ssS'1993'
p266
(dp267
sS'1992'
p268
(dp269
sS'1627'
p270
(dp271
Vservice
p272
g4
ssS'1997'
p273
(dp274
g168
g4
sVfelt
p275
g4
ssS'3200'
p276
(dp277
sS'1462'
p278
(dp279
V$
p280
g4
sVdishes
p281
g8
ssS'559'
p282
(dp283
sS'3638'
p284
(dp285
Vcheese
p286
g4
sVWe
p287
g4
sVfigured
p288
g4
sVlunch
p289
g8
sVpizza
p290
g28
sVPizza
p291
g4
ssS'747'
p292
(dp293
sS'555'
p294
(dp295
Vplace
p296
g8
ssS'3634'
p297
(dp298
sS'3632'
p299
(dp300
sS'3633'
p301
(dp302
Vthey
p303
g4
sVservice
p304
g4
sVtreat
p305
g4
ssS'3017'
p306
(dp307
g168
g4
sVgirl
p308
g28
sVHUNGRY
p309
g4
ssS'3063'
p310
(dp311
sS'2948'
p312
(dp313
sS'2945'
p314
(dp315
Vroom
p316
g8
ssS'236'
p317
(dp318
Vmoney
p319
g4
sVBo
p320
g8
ssS'1053'
p321
(dp322
Vstuff
p323
g4
ssS'2341'
p324
(dp325
sS'2226'
p326
(dp327
Vprice
p328
g8
sVreasonable
p329
g4
ssS'2224'
p330
(dp331
sS'3341'
p332
(dp333
Vwas
p334
g4
sVit
p335
g4
ssS'1195'
p336
(dp337
Vprices
p338
g4
sVsushi
p339
g28
sVanything
p340
g28
ssS'3344'
p341
(dp342
Vofficial
p343
g8
sVB.O.G
p344
g8
sVtimes
p345
g28
ssS'1693'
p346
(dp347
sS'1756'
p348
(dp349
sS'1699'
p350
(dp351
Vdumplings
p352
g28
ssS'1177'
p353
(dp354
sS'147'
p355
(dp356
Vstyle
p357
g8
sVribs
p358
g8
ssS'140'
p359
(dp360
sS'1170'
p361
(dp362
Vgo
p363
g4
ssS'2701'
p364
(dp365
Vfood
p366
g4
sVgreat
p367
g4
sVfantastic
p368
g4
sVService
p369
g4
ssS'611'
p370
(dp371
sS'617'
p372
(dp373
sS'1178'
p374
(dp375
sS'3708'
p376
(dp377
sS'1885'
p378
(dp379
sS'2856'
p380
(dp381
Vspace
p382
g8
sVthey
p383
g4
sV've
p384
g4
ssS'1882'
p385
(dp386
sS'3704'
p387
(dp388
sS'1285'
p389
(dp390
g168
g4
sVlive
p391
g4
ssS'2088'
p392
(dp393
sS'2122'
p394
(dp395
Vhuge
p396
g4
sVsushi
p397
g28
sVsizes
p398
g28
ssS'949'
p399
(dp400
Vtea
p401
g8
sVwine
p402
g8
ssS'3117'
p403
(dp404
Vfood
p405
g8
ssS'2083'
p406
(dp407
Vso-so
p408
g4
sVsum
p409
g4
ssS'944'
p410
(dp411
g168
g4
sVwent
p412
g4
ssS'945'
p413
(dp414
Vcafe
p415
g8
sVservice
p416
g4
ssS'1289'
p417
(dp418
sS'943'
p419
(dp420
sS'941'
p421
(dp422
Vservice
p423
g4
sVexcellent
p424
g4
ssS'2539'
p425
(dp426
Vcatcher
p427
g4
sVspecial
p428
g28
sVselections
p429
g28
ssS'517'
p430
(dp431
Vpage
p432
g8
ssS'1572'
p433
(dp434
Vfun
p435
g4
sVJeckll
p436
g4
ssS'687'
p437
(dp438
sS'2535'
p439
(dp440
sS'2712'
p441
(dp442
Vtimes
p443
g4
ssS'2710'
p444
(dp445
sS'1192'
p446
(dp447
Vsushi
p448
g8
ssS'1300'
p449
(dp450
sS'3103'
p451
(dp452
VUsha
p453
g8
sVmanhattan
p454
g4
ssS'2714'
p455
(dp456
Vmenu
p457
g28
ssS'622'
p458
(dp459
Vadvice
p460
g8
sVplace
p461
g8
ssS'2652'
p462
(dp463
Vlights
p464
g4
sVyou
p465
g4
sVputting
p466
g4
sVrestaurant
p467
g8
ssS'2655'
p468
(dp469
sS'137'
p470
(dp471
Vplace
p472
g8
sVcrowded
p473
g4
ssS'490'
p474
(dp475
sS'3419'
p476
(dp477
Vcuisine
p478
g8
sVis
p479
g4
ssS'1839'
p480
(dp481
VFood
p482
g4
sVgreat
p483
g4
ssS'29'
p484
(dp485
Vroom
p486
g4
ssS'407'
p487
(dp488
Vsushi
p489
g28
sVseemed
p490
g4
ssS'2407'
p491
(dp492
Vreason
p493
g4
ssS'2156'
p494
(dp495
VNYC
p496
g4
ssS'938'
p497
(dp498
sS'403'
p499
(dp500
Vaverage
p501
g4
sVit
p502
g4
sVnight
p503
g28
ssS'2403'
p504
(dp505
sS'2400'
p506
(dp507
Vtofu
p508
g4
sVsalad
p509
g4
sVbasic
p510
g4
ssS'2153'
p511
(dp512
sS'930'
p513
(dp514
Vvodka
p515
g8
sVcocktail
p516
g8
ssS'937'
p517
(dp518
VPRICES
p519
g4
ssS'936'
p520
(dp521
Vcame
p522
g4
ssS'935'
p523
(dp524
sS'2409'
p525
(dp526
Vdelivery
p527
g4
sVheel
p528
g4
ssS'414'
p529
(dp530
Vfood
p531
g8
ssS'1952'
p532
(dp533
Vfood
p534
g8
sVservice
p535
g4
sVexcellent
p536
g4
ssS'3567'
p537
(dp538
Vfritter
p539
g4
ssS'3242'
p540
(dp541
sS'3247'
p542
(dp543
Vspinach
p544
g28
ssS'3245'
p545
(dp546
Vbuns
p547
g28
sVgood
p548
g4
ssS'378'
p549
(dp550
Vfish
p551
g8
ssS'827'
p552
(dp553
Vsurprise
p554
g8
sVIt
p555
g4
ssS'826'
p556
(dp557
sS'1063'
p558
(dp559
Vforgivable
p560
g4
ssS'822'
p561
(dp562
Vreviews
p563
g8
ssS'704'
p564
(dp565
Vprices
p566
g4
sVfabulous
p567
g4
sVcheap
p568
g4
sVit
p569
g4
ssS'705'
p570
(dp571
VGREAT
p572
g4
sVportions
p573
g4
sVfood
p574
g8
sVcheap
p575
g4
sVIT
p576
g4
sVit
p577
g4
sVNOT
p578
g4
sVsmall
p579
g4
sVmean
p580
g4
ssS'706'
p581
(dp582
sS'1483'
p583
(dp584
Vfriendlier
p585
g4
sVThey
p586
g4
ssS'1480'
p587
(dp588
sS'397'
p589
(dp590
Vroll
p591
g8
ssS'1485'
p592
(dp593
VPizza
p594
g4
ssS'394'
p595
(dp596
Vassortment
p597
g8
sVfish
p598
g8
ssS'3306'
p599
(dp600
sS'3303'
p601
(dp602
Voz
p603
g28
sVBisque
p604
g4
ssS'2309'
p605
(dp606
sS'928'
p607
(dp608
g168
g4
sVcare
p609
g4
ssS'1710'
p610
(dp611
Vwaiter
p612
g28
ssS'1717'
p613
(dp614
Vtake
p615
g4
ssS'1716'
p616
(dp617
VStrike
p618
g4
sVplace
p619
g8
ssS'1715'
p620
(dp621
sS'1718'
p622
(dp623
sS'2305'
p624
(dp625
sS'2798'
p626
(dp627
sS'2169'
p628
(dp629
sS'1653'
p630
(dp631
sS'2289'
p632
(dp633
Vgood
p634
g4
sVservice
p635
g4
sVresturant
p636
g4
ssS'1139'
p637
(dp638
sS'3666'
p639
(dp640
sS'580'
p641
(dp642
Vconcluded
p643
g4
sVWe
p644
g4
ssS'3662'
p645
(dp646
Vdish
p647
g4
sVattentive
p648
g4
sVservice
p649
g4
ssS'2281'
p650
(dp651
sS'3668'
p652
(dp653
Vpresentation
p654
g8
ssS'588'
p655
(dp656
Vfood
p657
g8
sVcool
p658
g4
sVexperience
p659
g8
sVexcellent
p660
g4
ssS'1633'
p661
(dp662
sS'2838'
p663
(dp664
sS'3159'
p665
(dp666
Vcoffee
p667
g8
sVgood
p668
g4
ssS'2834'
p669
(dp670
sS'3107'
p671
(dp672
sS'2275'
p673
(dp674
Vhole-in-the-wall
p675
g28
sVplace
p676
g8
ssS'3019'
p677
(dp678
Vcouple
p679
g8
sVhusband
p680
g8
ssS'1430'
p681
(dp682
Vplace
p683
g8
ssS'418'
p684
(dp685
Vminutes
p686
g28
ssS'2574'
p687
(dp688
Vorganic
p689
g4
sVIngredients
p690
g4
ssS'3016'
p691
(dp692
Vmake
p693
g4
sVqualities
p694
g4
ssS'2573'
p695
(dp696
sS'3014'
p697
(dp698
Vwe
p699
g4
sVcall
p700
g8
sVentered
p701
g4
sVfirst
p702
g4
ssS'2571'
p703
(dp704
VAmbience
p705
g4
sVcute
p706
g4
ssS'2378'
p707
(dp708
Vshort-order
p709
g28
sVservice
p710
g4
ssS'2379'
p711
(dp712
Vlike
p713
g4
ssS'512'
p714
(dp715
Vd'
p716
g4
sVrude
p717
g4
ssS'1003'
p718
(dp719
sS'1001'
p720
(dp721
Vplace
p722
g8
ssS'1349'
p723
(dp724
Vevening
p725
g4
sVfriends
p726
g4
ssS'3590'
p727
(dp728
sS'2590'
p729
(dp730
sS'3595'
p731
(dp732
sS'629'
p733
(dp734
sS'2051'
p735
(dp736
Vname
p737
g8
ssS'974'
p738
(dp739
Vplace
p740
g28
sVcraving
p741
g28
sVtimes
p742
g8
ssS'971'
p743
(dp744
Vchicken
p745
g4
ssS'970'
p746
(dp747
sS'3696'
p748
(dp749
sS'182'
p750
(dp751
Vdhosas
p752
g28
sVsomosas
p753
g4
sVdissapointing
p754
g4
ssS'180'
p755
(dp756
Vside
p757
g8
ssS'3089'
p758
(dp759
Vfan
p760
g28
ssS'1507'
p761
(dp762
Vstay
p763
g4
ssS'650'
p764
(dp765
Vis
p766
g4
ssS'185'
p767
(dp768
Vfood
p769
g4
sVdo
p770
g4
sVyou
p771
g4
sVspicy
p772
g8
ssS'1508'
p773
(dp774
Vservice
p775
g4
ssS'2114'
p776
(dp777
sS'2116'
p778
(dp779
Vrolls
p780
g28
ssS'659'
p781
(dp782
sS'2623'
p783
(dp784
Vplace
p785
g8
ssS'1123'
p786
(dp787
Vnight
p788
g4
sVrolls
p789
g4
sVkitchen
p790
g28
ssS'2624'
p791
(dp792
g168
g4
sVthought
p793
g4
sVplace
p794
g8
sVoverrated
p795
g4
ssS'3526'
p796
(dp797
Vgo
p798
g4
sVWe
p799
g4
ssS'3520'
p800
(dp801
sS'3087'
p802
(dp803
Vdrinks
p804
g28
ssS'1917'
p805
(dp806
Vfood
p807
g8
sVgood
p808
g4
ssS'862'
p809
(dp810
Vsimple
p811
g4
sVdecor
p812
g28
ssS'867'
p813
(dp814
sS'2129'
p815
(dp816
sS'2699'
p817
(dp818
sS'2696'
p819
(dp820
Vmenu
p821
g4
sVtasting
p822
g4
ssS'2029'
p823
(dp824
Vproblem
p825
g28
ssS'885'
p826
(dp827
Vfood
p828
g8
sVplace
p829
g8
sVhorrible
p830
g4
ssS'888'
p831
(dp832
Vwhat
p833
g4
sVasked
p834
g4
sVone
p835
g28
ssS'278'
p836
(dp837
Vfusion
p838
g28
ssS'279'
p839
(dp840
VColonies
p841
g28
sVit
p842
g4
sVway
p843
g8
ssS'3233'
p844
(dp845
sS'1966'
p846
(dp847
Vplace
p848
g8
ssS'188'
p849
(dp850
Vpart
p851
g8
sVservice
p852
g4
ssS'1960'
p853
(dp854
sS'1613'
p855
(dp856
sS'1610'
p857
(dp858
Vpizza
p859
g28
ssS'328'
p860
(dp861
Vgreat
p862
g4
sg168
g4
sVit
p863
g4
sVended
p864
g4
sVplace
p865
g8
sVglad
p866
g4
ssS'562'
p867
(dp868
Vtable
p869
g28
ssS'774'
p870
(dp871
sS'777'
p872
(dp873
Vcriticize
p874
g4
ssS'2877'
p875
(dp876
Vkids
p877
g8
sVlove
p878
g4
ssS'2876'
p879
(dp880
Vexperience
p881
g8
sVtimes
p882
g4
ssS'206'
p883
(dp884
Vfood
p885
g8
sVis
p886
g4
sVits
p887
g4
sVdelicious
p888
g4
ssS'3625'
p889
(dp890
sS'3355'
p891
(dp892
Vcake
p893
g8
sVgelato
p894
g8
sg168
g4
sVthought
p895
g4
ssS'2979'
p896
(dp897
Vfood
p898
g8
sVaweful
p899
g4
ssS'72'
p900
(dp901
Vrestaurants
p902
g28
ssS'71'
p903
(dp904
Vwhat
p905
g4
sVMADE
p906
g4
sVservice
p907
g28
sVarea
p908
g8
sVplace
p909
g8
sVPizza
p910
g8
ssS'2546'
p911
(dp912
V's
p913
g4
ssS'1047'
p914
(dp915
VJapenese
p916
g4
sVfind
p917
g4
ssS'2235'
p918
(dp919
Vone
p920
g28
ssS'1683'
p921
(dp922
Vfood
p923
g8
sVservice
p924
g4
ssS'1687'
p925
(dp926
sS'1766'
p927
(dp928
VFood
p929
g4
ssS'1146'
p930
(dp931
sS'3289'
p932
(dp933
sS'1148'
p934
(dp935
sS'3479'
p936
(dp937
sS'3171'
p938
(dp939
sS'2096'
p940
(dp941
Vplaces
p942
g8
ssS'2093'
p943
(dp944
Vgo
p945
g4
ssS'3652'
p946
(dp947
Vcosts
p948
g8
ssS'2526'
p949
(dp950
Vprices
p951
g4
sVtake
p952
g4
sVDeliveries
p953
g4
ssS'1302'
p954
(dp955
Vprices
p956
g28
sVget
p957
g4
ssS'2488'
p958
(dp959
sS'695'
p960
(dp961
VCa
p962
g4
sVwait
p963
g4
ssS'3120'
p964
(dp965
Vfood
p966
g8
ssS'543'
p967
(dp968
sS'527'
p969
(dp970
Vcouple
p971
g8
sVdrinks
p972
g8
ssS'547'
p973
(dp974
sS'544'
p975
(dp976
Vspot
p977
g4
sVIt
p978
g4
ssS'1467'
p979
(dp980
Vtimes
p981
g8
ssS'1466'
p982
(dp983
Vconversation
p984
g8
sVattorney
p985
g8
sVside
p986
g8
ssS'2241'
p987
(dp988
sS'2243'
p989
(dp990
Vprices
p991
g4
sVnear
p992
g4
sVCollege
p993
g4
sVlocation
p994
g8
sVreasonable
p995
g4
sVgo
p996
g4
ssS'997'
p997
(dp998
sS'2467'
p999
(dp1000
sS'2461'
p1001
(dp1002
VCUISINE
p1003
g4
sVABOUT
p1004
g4
ssS'992'
p1005
(dp1006
Vkind
p1007
g8
ssS'2704'
p1008
(dp1009
sS'2468'
p1010
(dp1011
sS'126'
p1012
(dp1013
VSeating
p1014
g4
sV's
p1015
g4
ssS'1020'
p1016
(dp1017
Vdepends
p1018
g4
sVreally
p1019
g4
ssS'3379'
p1020
(dp1021
VSquare
p1022
g4
sVplace
p1023
g8
ssS'2068'
p1024
(dp1025
sS'2146'
p1026
(dp1027
Vfood
p1028
g8
sVatmosphere
p1029
g8
sVmakes
p1030
g4
sVstaff
p1031
g8
ssS'2145'
p1032
(dp1033
sS'411'
p1034
(dp1035
Vbrought
p1036
g4
sVwas
p1037
g4
ssS'413'
p1038
(dp1039
Vcheck
p1040
g4
ssS'2060'
p1041
(dp1042
Vhall
p1043
g28
ssS'922'
p1044
(dp1045
Vservice
p1046
g4
ssS'2796'
p1047
(dp1048
Vfood
p1049
g8
ssS'419'
p1050
(dp1051
sS'2066'
p1052
(dp1053
sS'313'
p1054
(dp1055
sS'317'
p1056
(dp1057
sS'314'
p1058
(dp1059
Vquality
p1060
g8
sVpints
p1061
g8
ssS'1920'
p1062
(dp1063
Varrived
p1064
g4
ssS'1921'
p1065
(dp1066
Vfood
p1067
g8
sVsurprise
p1068
g4
ssS'448'
p1069
(dp1070
Vpies
p1071
g4
sVget
p1072
g4
ssS'3272'
p1073
(dp1074
Vcollection
p1075
g8
ssS'832'
p1076
(dp1077
sS'3473'
p1078
(dp1079
VLOUD
p1080
g4
ssS'3570'
p1081
(dp1082
Vbucks
p1083
g8
sVpeople
p1084
g4
ssS'2359'
p1085
(dp1086
Vbill
p1087
g8
sVsteep
p1088
g4
sVexperience
p1089
g8
ssS'722'
p1090
(dp1091
Vambience
p1092
g28
sVdark
p1093
g4
sVit
p1094
g4
ssS'363'
p1095
(dp1096
Vfine
p1097
g4
sVlist
p1098
g8
ssS'2937'
p1099
(dp1100
Vsqueeze
p1101
g4
sVtreat
p1102
g4
ssS'2933'
p1103
(dp1104
sS'2931'
p1105
(dp1106
Vfood
p1107
g8
sg168
g4
sVgood
p1108
g4
sVleft
p1109
g4
ssS'382'
p1110
(dp1111
Vcalamari
p1112
g28
sVnoodles
p1113
g4
sVyummy
p1114
g4
sVcomes
p1115
g4
ssS'3313'
p1116
(dp1117
Vbday
p1118
g28
sVwent
p1119
g4
ssS'444'
p1120
(dp1121
VPatsy
p1122
g4
ssS'784'
p1123
(dp1124
Vplace
p1125
g8
ssS'785'
p1126
(dp1127
Vfeel
p1128
g4
sVzen
p1129
g4
ssS'2065'
p1130
(dp1131
Vgo
p1132
g4
ssS'1643'
p1133
(dp1134
sS'1642'
p1135
(dp1136
Vhad
p1137
g4
ssS'1649'
p1138
(dp1139
Vsushi
p1140
g8
ssS'2692'
p1141
(dp1142
Vattentive
p1143
g4
sVstaff
p1144
g8
ssS'3617'
p1145
(dp1146
Vneighborhood
p1147
g8
ssS'3619'
p1148
(dp1149
sS'571'
p1150
(dp1151
Vtime
p1152
g8
ssS'2954'
p1153
(dp1154
Vneighborhood
p1155
g8
sVnice
p1156
g4
ssS'60'
p1157
(dp1158
sS'2195'
p1159
(dp1160
Vservice
p1161
g4
sVexcellent
p1162
g4
ssS'3168'
p1163
(dp1164
Vbagel
p1165
g8
sVcorner
p1166
g8
sVway
p1167
g8
ssS'2197'
p1168
(dp1169
Vneed
p1170
g4
sVgood
p1171
g4
sVsushi
p1172
g28
sVplace
p1173
g8
sVThey
p1174
g4
ssS'2198'
p1175
(dp1176
VFaan
p1177
g4
sVgood
p1178
g4
ssS'2199'
p1179
(dp1180
sS'3162'
p1181
(dp1182
Vtown
p1183
g4
ssS'2807'
p1184
(dp1185
Vplace
p1186
g8
ssS'2569'
p1187
(dp1188
Vreviews
p1189
g4
ssS'2406'
p1190
(dp1191
Vfritters
p1192
g28
ssS'1423'
p1193
(dp1194
Vhotpot
p1195
g4
sVcooking
p1196
g28
sVspecial
p1197
g4
sVrestaurant
p1198
g8
ssS'2207'
p1199
(dp1200
Vseated
p1201
g4
sVus
p1202
g4
ssS'3364'
p1203
(dp1204
Vspot
p1205
g8
ssS'1428'
p1206
(dp1207
g168
g4
sVwent
p1208
g4
sVgood
p1209
g4
sVit
p1210
g4
ssS'3366'
p1211
(dp1212
Vfood
p1213
g8
sVpastas
p1214
g8
ssS'1373'
p1215
(dp1216
sS'1584'
p1217
(dp1218
VBEST
p1219
g4
sVSHOW
p1220
g4
ssS'1038'
p1221
(dp1222
Vservice
p1223
g4
ssS'732'
p1224
(dp1225
Vburger
p1226
g8
sVgreat
p1227
g4
ssS'508'
p1228
(dp1229
VFrites
p1230
g4
ssS'739'
p1231
(dp1232
Vwaiter
p1233
g28
sVfound
p1234
g4
ssS'1030'
p1235
(dp1236
Vjob
p1237
g8
sVwaitresses
p1238
g4
sVfriendly
p1239
g4
ssS'2151'
p1240
(dp1241
Vrate
p1242
g4
ssS'2428'
p1243
(dp1244
sS'1358'
p1245
(dp1246
Vprice
p1247
g8
ssS'468'
p1248
(dp1249
Vneed
p1250
g4
sVsnobs
p1251
g4
sVkind
p1252
g8
ssS'2580'
p1253
(dp1254
Vservice
p1255
g28
ssS'1171'
p1256
(dp1257
sS'464'
p1258
(dp1259
Vdishes
p1260
g8
sVfood
p1261
g8
sVphenomenal
p1262
g4
sVambiance
p1263
g28
sVveal
p1264
g4
sVminimal
p1265
g4
ssS'1351'
p1266
(dp1267
Vwork
p1268
g4
ssS'2423'
p1269
(dp1270
g168
g4
sVlive
p1271
g4
sVopened
p1272
g4
ssS'402'
p1273
(dp1274
g168
g4
sVSpecial
p1275
g4
ssS'463'
p1276
(dp1277
sS'608'
p1278
(dp1279
Vwe
p1280
g4
sVwas
p1281
g4
sVit
p1282
g4
sVwalked
p1283
g4
ssS'164'
p1284
(dp1285
sS'167'
p1286
(dp1287
Vstuff
p1288
g28
sVturn-over
p1289
g4
ssS'966'
p1290
(dp1291
Vquality
p1292
g8
ssS'2898'
p1293
(dp1294
Vportion
p1295
g8
ssS'783'
p1296
(dp1297
sS'969'
p1298
(dp1299
sS'3685'
p1300
(dp1301
Vmoney
p1302
g8
ssS'2109'
p1303
(dp1304
Vechoes
p1305
g8
sVservice
p1306
g28
sVacousitcs
p1307
g4
ssS'1102'
p1308
(dp1309
sS'1518'
p1310
(dp1311
Vplace
p1312
g8
ssS'2103'
p1313
(dp1314
Vbrought
p1315
g4
sVfresh
p1316
g4
ssS'1517'
p1317
(dp1318
Vplace
p1319
g8
ssS'2100'
p1320
(dp1321
sS'1109'
p1322
(dp1323
Vpotatoes
p1324
g4
sVhands
p1325
g4
ssS'2730'
p1326
(dp1327
VJackel
p1328
g4
ssS'2635'
p1329
(dp1330
sS'2739'
p1331
(dp1332
sS'3533'
p1333
(dp1334
Vplace
p1335
g8
ssS'1158'
p1336
(dp1337
sS'1816'
p1338
(dp1339
Vspot
p1340
g4
ssS'1811'
p1341
(dp1342
Vagenda
p1343
g8
ssS'2121'
p1344
(dp1345
VIndoor
p1346
g4
sVcozy
p1347
g4
ssS'2437'
p1348
(dp1349
sS'875'
p1350
(dp1351
Vwe
p1352
g4
sVarrived
p1353
g4
sVempty
p1354
g4
sVrestaurant
p1355
g8
ssS'1818'
p1356
(dp1357
sS'2794'
p1358
(dp1359
sS'871'
p1360
(dp1361
Vit
p1362
g4
sVdeal
p1363
g4
ssS'2742'
p1364
(dp1365
Vmartini
p1366
g8
ssS'3181'
p1367
(dp1368
sS'3183'
p1369
(dp1370
sS'2748'
p1371
(dp1372
Vthing
p1373
g4
sVservice
p1374
g4
ssS'3482'
p1375
(dp1376
sS'647'
p1377
(dp1378
Vfood
p1379
g8
ssS'897'
p1380
(dp1381
sS'899'
p1382
(dp1383
VFood
p1384
g4
ssS'646'
p1385
(dp1386
sS'671'
p1387
(dp1388
Vpot
p1389
g28
sVplatters
p1390
g4
ssS'2165'
p1391
(dp1392
Vbagel
p1393
g8
ssS'3545'
p1394
(dp1395
sS'1601'
p1396
(dp1397
Ventrees
p1398
g8
ssS'3224'
p1399
(dp1400
Veverything
p1401
g28
sVmenu
p1402
g8
ssS'1974'
p1403
(dp1404
Vwas
p1405
g4
sVit
p1406
g4
ssS'1605'
p1407
(dp1408
sS'355'
p1409
(dp1410
sS'353'
p1411
(dp1412
VMargarita
p1413
g4
ssS'352'
p1414
(dp1415
sS'950'
p1416
(dp1417
sS'802'
p1418
(dp1419
VLobster
p1420
g28
sVOne
p1421
g4
ssS'1614'
p1422
(dp1423
Vcook
p1424
g8
sVaunt
p1425
g8
ssS'216'
p1426
(dp1427
Vtry
p1428
g4
ssS'214'
p1429
(dp1430
Vattentive
p1431
g4
sVWaitstaff
p1432
g4
ssS'1967'
p1433
(dp1434
sS'213'
p1435
(dp1436
Vwater
p1437
g4
sVmouth
p1438
g4
ssS'210'
p1439
(dp1440
sS'2847'
p1441
(dp1442
Vwaiter
p1443
g28
sVdessert
p1444
g8
sVBirthday
p1445
g8
sVsaw
p1446
g4
sVgift
p1447
g4
ssS'2844'
p1448
(dp1449
Vrestaurant
p1450
g8
ssS'2968'
p1451
(dp1452
sS'3323'
p1453
(dp1454
sS'3326'
p1455
(dp1456
sS'3043'
p1457
(dp1458
Vreasonably
p1459
g4
sVthey
p1460
g4
sVget
p1461
g4
ssS'41'
p1462
(dp1463
sS'3044'
p1464
(dp1465
sS'3046'
p1466
(dp1467
Vposts
p1468
g8
ssS'2323'
p1469
(dp1470
sS'2321'
p1471
(dp1472
Vplace
p1473
g8
ssS'2320'
p1474
(dp1475
Vslow
p1476
g4
sVService
p1477
g4
sVpeople
p1478
g8
ssS'1770'
p1479
(dp1480
Vsushi
p1481
g28
sVhad
p1482
g4
ssS'2325'
p1483
(dp1484
Vavailable
p1485
g4
sVdishes
p1486
g8
ssS'1778'
p1487
(dp1488
Vnothing
p1489
g8
sVatmosphere
p1490
g8
ssS'334'
p1491
(dp1492
Vfood
p1493
g8
sVwas
p1494
g4
ssS'1676'
p1495
(dp1496
sS'3488'
p1497
(dp1498
sS'1097'
p1499
(dp1500
Vcuisine
p1501
g8
sVspot
p1502
g8
ssS'679'
p1503
(dp1504
sS'1093'
p1505
(dp1506
VRoth
p1507
g4
sVcity
p1508
g8
sVrestaurant
p1509
g4
ssS'1154'
p1510
(dp1511
sS'1156'
p1512
(dp1513
VJimmy
p1514
g4
sVhands
p1515
g28
ssS'1150'
p1516
(dp1517
VJimmy
p1518
g4
sVDominican
p1519
g4
ssS'3487'
p1520
(dp1521
sS'260'
p1522
(dp1523
Vdish
p1524
g28
ssS'3133'
p1525
(dp1526
Vphrase
p1527
g8
sVhot
p1528
g4
ssS'3647'
p1529
(dp1530
sS'2998'
p1531
(dp1532
Vfood
p1533
g8
sVplace
p1534
g8
sVgarden
p1535
g8
ssS'2553'
p1536
(dp1537
sS'3038'
p1538
(dp1539
VStaffs
p1540
g4
sVfriendly
p1541
g4
ssS'1977'
p1542
(dp1543
sS'1556'
p1544
(dp1545
sS'2991'
p1546
(dp1547
Vsteak
p1548
g28
sVfatty
p1549
g4
ssS'57'
p1550
(dp1551
sS'2492'
p1552
(dp1553
Vsandwhich
p1554
g8
ssS'3030'
p1555
(dp1556
sS'2995'
p1557
(dp1558
Vscallops
p1559
g28
sVrisotto-yum
p1560
g28
ssS'2390'
p1561
(dp1562
g168
g4
sVdish
p1563
g4
sVsum
p1564
g4
sVsure
p1565
g4
sVitem
p1566
g28
ssS'54'
p1567
(dp1568
VBrewery
p1569
g4
sVway
p1570
g8
ssS'1411'
p1571
(dp1572
sS'2252'
p1573
(dp1574
Voblige
p1575
g4
ssS'1416'
p1576
(dp1577
Vwhats
p1578
g8
ssS'2399'
p1579
(dp1580
Vportions
p1581
g4
ssS'2779'
p1582
(dp1583
Vwe
p1584
g4
sVappetizers
p1585
g8
sVordered
p1586
g4
sVgave
p1587
g4
ssS'1320'
p1588
(dp1589
VNothing
p1590
g8
sVobvious
p1591
g4
ssS'2474'
p1592
(dp1593
Vfood
p1594
g8
sVstuff
p1595
g8
ssS'1326'
p1596
(dp1597
Vfood
p1598
g8
sVfresh
p1599
g4
sVtreated
p1600
g4
ssS'3003'
p1601
(dp1602
Vfish
p1603
g8
ssS'2471'
p1604
(dp1605
sS'1325'
p1606
(dp1607
Vgirlfriend
p1608
g8
sVrelaxing
p1609
g8
ssS'983'
p1610
(dp1611
Vlunch
p1612
g4
ssS'2772'
p1613
(dp1614
Vmenu
p1615
g8
ssS'2478'
p1616
(dp1617
Vdishes
p1618
g28
ssS'2785'
p1619
(dp1620
Vwarm
p1621
g4
sVstaff
p1622
g8
ssS'2780'
p1623
(dp1624
sS'2782'
p1625
(dp1626
Vaverage
p1627
g8
ssS'1851'
p1628
(dp1629
sS'1857'
p1630
(dp1631
Vdrink
p1632
g28
sVspace
p1633
g8
ssS'2172'
p1634
(dp1635
sS'918'
p1636
(dp1637
Vgo
p1638
g4
ssS'1399'
p1639
(dp1640
Vowner
p1641
g8
sVfood
p1642
g8
ssS'1398'
p1643
(dp1644
Vlunch
p1645
g4
sVit
p1646
g4
sVchoice
p1647
g8
ssS'917'
p1648
(dp1649
Vgood
p1650
g4
sVService
p1651
g4
ssS'1528'
p1652
(dp1653
Vfood
p1654
g8
sVhave
p1655
g4
ssS'913'
p1656
(dp1657
Vdecour
p1658
g4
sVhall
p1659
g28
sVrestaurant
p1660
g8
ssS'2259'
p1661
(dp1662
Vate
p1663
g4
ssS'1420'
p1664
(dp1665
sS'2258'
p1666
(dp1667
sS'2608'
p1668
(dp1669
sS'1932'
p1670
(dp1671
Vrestaurant
p1672
g4
ssS'665'
p1673
(dp1674
Vrecommend
p1675
g4
ssS'3262'
p1676
(dp1677
V!!
p1678
g8
sVThey
p1679
g4
ssS'2256'
p1680
(dp1681
sS'1939'
p1682
(dp1683
Vgem
p1684
g8
ssS'3467'
p1685
(dp1686
Vfood
p1687
g8
ssS'3464'
p1688
(dp1689
Vreading
p1690
g4
ssS'3463'
p1691
(dp1692
sS'1426'
p1693
(dp1694
g168
g4
sVis
p1695
g4
sVwas
p1696
g4
ssS'3506'
p1697
(dp1698
g168
g4
sVcuisine
p1699
g8
sVthought
p1700
g4
ssS'848'
p1701
(dp1702
sS'2672'
p1703
(dp1704
sS'3365'
p1705
(dp1706
VOpera
p1707
g4
sVeverything
p1708
g8
ssS'1417'
p1709
(dp1710
VLassi
p1711
g4
ssS'3511'
p1712
(dp1713
Vgentleman
p1714
g28
sVcame
p1715
g4
ssS'2928'
p1716
(dp1717
Vnothing
p1718
g4
sVProblem
p1719
g4
ssS'2564'
p1720
(dp1721
sS'3362'
p1722
(dp1723
Vis
p1724
g4
sVpart
p1725
g8
sVKenny
p1726
g8
sVfamily
p1727
g8
ssS'2472'
p1728
(dp1729
VMargaritas
p1730
g28
sVfocus
p1731
g8
ssS'3215'
p1732
(dp1733
VHaru
p1734
g4
sVdisgusting
p1735
g4
ssS'1985'
p1736
(dp1737
sS'1980'
p1738
(dp1739
sS'1638'
p1740
(dp1741
Vprices
p1742
g4
sVreasonable
p1743
g4
ssS'1639'
p1744
(dp1745
Vlist
p1746
g8
ssS'1733'
p1747
(dp1748
VDecor
p1749
g4
ssS'1735'
p1750
(dp1751
sS'2499'
p1752
(dp1753
sS'980'
p1754
(dp1755
sS'568'
p1756
(dp1757
Vtried
p1758
g4
sVhe
p1759
g4
ssS'755'
p1760
(dp1761
sS'560'
p1762
(dp1763
Vmenu
p1764
g8
sVdiverse
p1765
g4
ssS'3609'
p1766
(dp1767
sS'758'
p1768
(dp1769
Vfood
p1770
g8
ssS'564'
p1771
(dp1772
Vtable
p1773
g8
ssS'3071'
p1774
(dp1775
Vtables
p1776
g28
ssS'3072'
p1777
(dp1778
Vprompt
p1779
g4
sVService
p1780
g4
ssS'3073'
p1781
(dp1782
VFood
p1783
g4
ssS'1590'
p1784
(dp1785
Vtime
p1786
g4
ssS'3078'
p1787
(dp1788
sS'2957'
p1789
(dp1790
Vlarge
p1791
g4
sVsweet
p1792
g4
sVbill
p1793
g8
sVfood
p1794
g8
sVwaiters
p1795
g4
ssS'3177'
p1796
(dp1797
VWe
p1798
g4
sVate
p1799
g4
ssS'220'
p1800
(dp1801
Vwants
p1802
g4
sVwho
p1803
g4
sVRusse
p1804
g4
ssS'1024'
p1805
(dp1806
sS'1027'
p1807
(dp1808
Vsake
p1809
g8
sVbottle
p1810
g28
sVsashimi
p1811
g4
ssS'2210'
p1812
(dp1813
Vspicy
p1814
g8
sVtimes
p1815
g28
ssS'2216'
p1816
(dp1817
Vprice
p1818
g8
ssS'2215'
p1819
(dp1820
Vprices
p1821
g4
sVambience
p1822
g28
sVfun
p1823
g4
sVtasty
p1824
g4
sVfood
p1825
g8
ssS'2214'
p1826
(dp1827
sS'1186'
p1828
(dp1829
sS'1187'
p1830
(dp1831
Vis
p1832
g4
sVit
p1833
g4
ssS'390'
p1834
(dp1835
Vask
p1836
g4
ssS'1748'
p1837
(dp1838
sS'723'
p1839
(dp1840
g168
g4
sVcame
p1841
g4
ssS'721'
p1842
(dp1843
Vit
p1844
g4
sVlooks
p1845
g4
ssS'2350'
p1846
(dp1847
Vtuna
p1848
g4
ssS'1742'
p1849
(dp1850
Vlive
p1851
g4
ssS'151'
p1852
(dp1853
sS'1165'
p1854
(dp1855
Vit
p1856
g4
sVworth
p1857
g4
ssS'2438'
p1858
(dp1859
sS'1162'
p1860
(dp1861
Vstrict
p1862
g4
sVcombination
p1863
g8
ssS'1163'
p1864
(dp1865
Vservice
p1866
g4
ssS'1207'
p1867
(dp1868
Vtuna
p1869
g28
sVgari
p1870
g4
ssS'1168'
p1871
(dp1872
sS'1169'
p1873
(dp1874
Vbills
p1875
g8
ssS'2435'
p1876
(dp1877
g168
g4
sVrecommend
p1878
g4
ssS'959'
p1879
(dp1880
Vatmosphere
p1881
g8
sVfriendly
p1882
g4
sVservice
p1883
g4
ssS'1366'
p1884
(dp1885
Vgrace
p1886
g8
sVdrinks
p1887
g4
ssS'47'
p1888
(dp1889
Vplace
p1890
g8
sVworth
p1891
g4
ssS'637'
p1892
(dp1893
Vrooms
p1894
g28
ssS'42'
p1895
(dp1896
VHEARTLAND
p1897
g4
ssS'87'
p1898
(dp1899
sS'1447'
p1900
(dp1901
Vthirsty
p1902
g4
sVHe
p1903
g4
ssS'1299'
p1904
(dp1905
sS'639'
p1906
(dp1907
sS'1119'
p1908
(dp1909
Vmenu
p1910
g8
sVwhat
p1911
g4
sVmade
p1912
g4
sVplace
p1913
g8
sVspecial
p1914
g4
ssS'934'
p1915
(dp1916
Vmeat
p1917
g4
ssS'1297'
p1918
(dp1919
Vrude
p1920
g4
sVThey
p1921
g4
ssS'1566'
p1922
(dp1923
sS'1295'
p1924
(dp1925
Vservice
p1926
g28
ssS'1558'
p1927
(dp1928
Vdeal
p1929
g4
ssS'2004'
p1930
(dp1931
Vgo
p1932
g4
ssS'1782'
p1933
(dp1934
sS'484'
p1935
(dp1936
sS'482'
p1937
(dp1938
sS'3428'
p1939
(dp1940
Vbe
p1941
g4
ssS'1808'
p1942
(dp1943
Vtaste
p1944
g4
sVmouth
p1945
g8
sVit
p1946
g4
sVservice
p1947
g28
ssS'2002'
p1948
(dp1949
sS'470'
p1950
(dp1951
sS'2007'
p1952
(dp1953
sS'474'
p1954
(dp1955
sS'479'
p1956
(dp1957
Vworld
p1958
g28
sVsandwhiches
p1959
g4
ss.