(dp0
S'3088'
p1
(dp2
Vkamasutra
p3
(dp4
S'price'
p5
S'neutral'
p6
sssS'3258'
p7
(dp8
Vrestaurants
p9
(dp10
S'service'
p11
S'positive'
p12
sssS'3250'
p13
(dp14
Vliving
p15
(dp16
S'food'
p17
g6
sssS'3254'
p18
(dp19
Vfood
p20
(dp21
S'food'
p22
g12
sssS'3558'
p23
(dp24
Vdishes
p25
(dp26
S'service'
p27
g6
sssS'346'
p28
(dp29
Vis
p30
(dp31
S'food'
p32
g6
sS'atmosphere'
p33
g6
ssVplace
p34
(dp35
g33
g12
sssS'341'
p36
(dp37
Vseasoning
p38
(dp39
S'food'
p40
g12
ssVbland
p41
(dp42
g40
g6
ssVsushi
p43
(dp44
g40
S'negative'
p45
sssS'810'
p46
(dp47
sS'3494'
p48
(dp49
sS'817'
p50
(dp51
Vwaiter
p52
(dp53
S'service'
p54
g45
sssS'2853'
p55
(dp56
sS'1796'
p57
(dp58
Vguys
p59
(dp60
S'service'
p61
g6
sssS'1794'
p62
(dp63
Voverpriced
p64
(dp65
S'price'
p66
g6
sssS'1491'
p67
(dp68
Vsauce
p69
(dp70
S'food'
p71
g45
sS'ambiance'
p72
g45
ssVcrust
p73
(dp74
g72
g12
ssVdelicious
p75
(dp76
g71
g6
sg72
g6
sssS'1496'
p77
(dp78
sS'1395'
p79
(dp80
Vmost
p81
(dp82
S'food'
p83
g6
sssS'1701'
p84
(dp85
sS'1060'
p86
(dp87
Vgreat
p88
(dp89
S'food'
p90
g6
sS'service'
p91
g6
ssVSpreads
p92
(dp93
g90
g6
sssS'2314'
p94
(dp95
Vgreat
p96
(dp97
S'service'
p98
g6
ssVservice
p99
(dp100
g98
g6
sssS'2312'
p101
(dp102
Vgoing
p103
(dp104
S'service'
p105
g6
sssS'1669'
p106
(dp107
Vplace
p108
(dp109
S'atmosphere'
p110
g6
sssS'299'
p111
(dp112
Vbenedict
p113
(dp114
S'food'
p115
g45
sS'service'
p116
g45
ssVservice
p117
(dp118
g116
g6
sssS'295'
p119
(dp120
Vup
p121
(dp122
S'service'
p123
g6
sssS'292'
p124
(dp125
sS'1086'
p126
(dp127
sS'587'
p128
(dp129
sS'195'
p130
(dp131
Vweather
p132
(dp133
S'servicing'
p134
g6
sssS'196'
p135
(dp136
Vstaff
p137
(dp138
S'military_service'
p139
g12
sssS'190'
p140
(dp141
sS'192'
p142
(dp143
sS'3679'
p144
(dp145
Vplace
p146
(dp147
S'atmosphere'
p148
g12
sssS'3672'
p149
(dp150
Vstaff
p151
(dp152
S'military_service'
p153
g12
sssS'3149'
p154
(dp155
Vcame
p156
(dp157
S'food'
p158
g6
sssS'3677'
p159
(dp160
Vplate
p161
(dp162
S'service'
p163
g6
sssS'2989'
p164
(dp165
sS'2547'
p166
(dp167
VSpecials
p168
(dp169
S'food'
p170
g6
sssS'3663'
p171
(dp172
Vdessert
p173
(dp174
S'food'
p175
g12
sssS'2987'
p176
(dp177
Vfood
p178
(dp179
S'food'
p180
g12
sssS'3022'
p181
(dp182
Vlove
p183
(dp184
S'servicing'
p185
g6
sssS'3388'
p186
(dp187
sS'2268'
p188
(dp189
sS'2382'
p190
(dp191
Vtry
p192
(dp193
S'service'
p194
g6
ssVfetish
p195
(dp196
g194
g12
sssS'2387'
p197
(dp198
VSeveral
p199
(dp200
S'food'
p201
g6
ssVhad
p202
(dp203
g201
g6
sS'serve'
p204
g6
sssS'2389'
p205
(dp206
Vdish
p207
(dp208
S'service'
p209
g45
ssVfood
p210
(dp211
S'food'
p212
g45
sg209
g45
sssS'2263'
p213
(dp214
Vservice
p215
(dp216
S'service'
p217
g6
sssS'2261'
p218
(dp219
Vlist
p220
(dp221
S'price'
p222
g6
sssS'3581'
p223
(dp224
Vcheeseburgers
p225
(dp226
S'food'
p227
g6
sssS'3583'
p228
(dp229
Vfell
p230
(dp231
S'overhaul'
p232
g6
sssS'1231'
p233
(dp234
Vbagels
p235
(dp236
S'food'
p237
g12
sssS'1233'
p238
(dp239
sS'441'
p240
(dp241
Vservice
p242
(dp243
S'service'
p244
g6
sssS'2285'
p245
(dp246
Vfood
p247
(dp248
S'food'
p249
g6
sssS'2514'
p250
(dp251
sS'2516'
p252
(dp253
VI
p254
(dp255
S'food'
p256
g6
ssVgo
p257
(dp258
g256
g6
sS'service'
p259
g6
ssVplace
p260
(dp261
g256
g6
sS'atmosphere'
p262
g6
sg259
g6
sssS'902'
p263
(dp264
sS'900'
p265
(dp266
VInterior
p267
(dp268
S'ambiance'
p269
g6
ssVwas
p270
(dp271
g269
g6
sssS'906'
p272
(dp273
sS'1540'
p274
(dp275
sS'904'
p276
(dp277
Vgotten
p278
(dp279
S'service'
p280
g6
sssS'1536'
p281
(dp282
sS'1534'
p283
(dp284
sS'2169'
p285
(dp286
sS'644'
p287
(dp288
sS'3094'
p289
(dp290
sS'3095'
p291
(dp292
g254
(dp293
S'food'
p294
g6
ssVfan
p295
(dp296
g294
g6
sS'service'
p297
g6
sssS'649'
p298
(dp299
sS'1539'
p300
(dp301
sS'2614'
p302
(dp303
Vplace
p304
(dp305
S'atmosphere'
p306
g45
sssS'2611'
p307
(dp308
sS'2610'
p309
(dp310
Vtoppings
p311
(dp312
S'service'
p313
g6
sssS'1946'
p314
(dp315
VVillage
p316
(dp317
S'ambiance'
p318
g6
sssS'3266'
p319
(dp320
Vsimplicity
p321
(dp322
S'price'
p323
g12
ssVplace
p324
(dp325
g323
g6
sS'atmosphere'
p326
g6
ssVelegance
p327
(dp328
g323
g6
sssS'331'
p329
(dp330
Vfriend
p331
(dp332
S'service'
p333
g12
sssS'330'
p334
(dp335
sS'333'
p336
(dp337
VBoy
p338
(dp339
S'service'
p340
g6
ssVwas
p341
(dp342
S'ambiance'
p343
g6
sg340
g6
sssS'1908'
p344
(dp345
Vsmall
p346
(dp347
S'atmosphere'
p348
g6
sS'service'
p349
g6
ssVreservations
p350
(dp351
g349
g6
sssS'3296'
p352
(dp353
Vit
p354
(dp355
S'food'
p356
g6
ssVcrowded
p357
(dp358
g356
g6
sssS'1905'
p359
(dp360
sS'1902'
p361
(dp362
VSteak
p363
(dp364
S'food'
p365
g12
sssS'3450'
p366
(dp367
sS'3518'
p368
(dp369
VEw
p370
(dp371
S'service'
p372
g6
sssS'3457'
p373
(dp374
Vwalked
p375
(dp376
S'food'
p377
g6
sssS'3458'
p378
(dp379
sS'3510'
p380
(dp381
Vwas
p382
(dp383
S'ambiance'
p384
g6
ssVexperience
p385
(dp386
S'food'
p387
g12
sg384
g12
ssVrestaurant
p388
(dp389
g387
g6
sg384
g6
sS'service'
p390
g6
sssS'2686'
p391
(dp392
Vplace
p393
(dp394
S'atmosphere'
p395
g12
sS'service'
p396
g12
ssVservice
p397
(dp398
g396
g6
sssS'2246'
p399
(dp400
Vgo
p401
(dp402
S'service'
p403
g6
sssS'1993'
p404
(dp405
sS'1992'
p406
(dp407
sS'1627'
p408
(dp409
Vservice
p410
(dp411
S'service'
p412
g6
sssS'1997'
p413
(dp414
g254
(dp415
S'food'
p416
g6
ssVfelt
p417
(dp418
g416
g6
sS'service'
p419
g6
sssS'3200'
p420
(dp421
sS'1462'
p422
(dp423
Vdishes
p424
(dp425
S'service'
p426
g12
sssS'559'
p427
(dp428
sS'3638'
p429
(dp430
Vcheese
p431
(dp432
S'food'
p433
g6
ssVfigured
p434
(dp435
g433
g6
ssVPizza
p436
(dp437
g433
g6
ssVlunch
p438
(dp439
g433
g12
ssVpizza
p440
(dp441
g433
g45
sssS'747'
p442
(dp443
sS'555'
p444
(dp445
Vplace
p446
(dp447
S'atmosphere'
p448
g12
sssS'3634'
p449
(dp450
sS'3632'
p451
(dp452
sS'3633'
p453
(dp454
Vtreat
p455
(dp456
S'food'
p457
g6
sS'service'
p458
g6
ssVservice
p459
(dp460
g458
g6
sssS'3017'
p461
(dp462
g254
(dp463
S'food'
p464
g6
sS'service'
p465
g6
ssVgirl
p466
(dp467
g465
g45
ssVHUNGRY
p468
(dp469
g464
g6
sg465
g6
sssS'3063'
p470
(dp471
sS'2948'
p472
(dp473
sS'2945'
p474
(dp475
Vroom
p476
(dp477
S'military_service'
p478
g12
sssS'236'
p479
(dp480
Vmoney
p481
(dp482
S'price'
p483
g6
sssS'1053'
p484
(dp485
Vstuff
p486
(dp487
S'food'
p488
g6
sssS'2341'
p489
(dp490
sS'2226'
p491
(dp492
Vprice
p493
(dp494
S'monetary_value'
p495
g12
ssVreasonable
p496
(dp497
S'food'
p498
g6
sg495
g6
sssS'2224'
p499
(dp500
sS'3341'
p501
(dp502
Vwas
p503
(dp504
S'food'
p505
g6
sS'ambiance'
p506
g6
ssVit
p507
(dp508
g505
g6
sssS'1195'
p509
(dp510
Vprices
p511
(dp512
S'monetary_value'
p513
g6
ssVsushi
p514
(dp515
S'food'
p516
g45
sg513
g45
sssS'3344'
p517
(dp518
Vofficial
p519
(dp520
S'service'
p521
g12
ssVtimes
p522
(dp523
g521
g45
sssS'1693'
p524
(dp525
sS'1756'
p526
(dp527
sS'1699'
p528
(dp529
Vdumplings
p530
(dp531
S'food'
p532
g45
sssS'1177'
p533
(dp534
sS'147'
p535
(dp536
Vstyle
p537
(dp538
S'price'
p539
g12
ssVribs
p540
(dp541
S'food'
p542
g12
sg539
g12
sssS'140'
p543
(dp544
sS'1170'
p545
(dp546
Vgo
p547
(dp548
S'service'
p549
g6
sssS'2701'
p550
(dp551
Vfood
p552
(dp553
S'food'
p554
g6
sS'service'
p555
g6
ssVgreat
p556
(dp557
g555
g6
ssVfantastic
p558
(dp559
g554
g6
sg555
g6
ssVService
p560
(dp561
g555
g6
sssS'611'
p562
(dp563
sS'617'
p564
(dp565
sS'1178'
p566
(dp567
sS'3708'
p568
(dp569
sS'1885'
p570
(dp571
sS'2856'
p572
(dp573
Vspace
p574
(dp575
S'ambiance'
p576
g12
sssS'1882'
p577
(dp578
sS'3704'
p579
(dp580
sS'1285'
p581
(dp582
g254
(dp583
S'food'
p584
g6
ssVlive
p585
(dp586
g584
g6
sssS'2088'
p587
(dp588
sS'2122'
p589
(dp590
Vhuge
p591
(dp592
S'food'
p593
g6
sS'atmosphere'
p594
g6
ssVsushi
p595
(dp596
g593
g45
sg594
g45
ssVsizes
p597
(dp598
g594
g45
sssS'949'
p599
(dp600
Vtea
p601
(dp602
S'food'
p603
g12
ssVwine
p604
(dp605
g603
g12
sssS'3117'
p606
(dp607
Vfood
p608
(dp609
S'food'
p610
g12
sssS'2083'
p611
(dp612
Vso-so
p613
(dp614
S'food'
p615
g6
ssVsum
p616
(dp617
g615
g6
sssS'944'
p618
(dp619
g254
(dp620
S'food'
p621
g6
ssVwent
p622
(dp623
g621
g6
sS'service'
p624
g6
sssS'945'
p625
(dp626
Vcafe
p627
(dp628
S'service'
p629
g12
ssVservice
p630
(dp631
g629
g6
sssS'1289'
p632
(dp633
sS'943'
p634
(dp635
sS'941'
p636
(dp637
Vservice
p638
(dp639
S'service'
p640
g6
ssVexcellent
p641
(dp642
S'food'
p643
g6
sg640
g6
sssS'2539'
p644
(dp645
Vspecial
p646
(dp647
S'food'
p648
g45
ssVselections
p649
(dp650
g648
g45
sS'service'
p651
g45
sssS'517'
p652
(dp653
Vpage
p654
(dp655
S'service'
p656
g12
sssS'1572'
p657
(dp658
Vfun
p659
(dp660
S'service'
p661
g6
sssS'687'
p662
(dp663
sS'2535'
p664
(dp665
sS'2712'
p666
(dp667
Vtimes
p668
(dp669
S'service'
p670
g6
sssS'2710'
p671
(dp672
sS'1192'
p673
(dp674
Vsushi
p675
(dp676
S'food'
p677
g12
sssS'1300'
p678
(dp679
sS'3103'
p680
(dp681
Vmanhattan
p682
(dp683
S'food'
p684
g6
sssS'2714'
p685
(dp686
Vmenu
p687
(dp688
S'food'
p689
g45
sssS'622'
p690
(dp691
Vadvice
p692
(dp693
S'atmosphere'
p694
g12
sS'price'
p695
g12
ssVplace
p696
(dp697
g694
g12
sssS'2652'
p698
(dp699
Vlights
p700
(dp701
S'atmosphere'
p702
g6
ssVputting
p703
(dp704
g702
g6
sS'serve'
p705
g6
sS'service'
p706
g6
ssVrestaurant
p707
(dp708
g702
g12
sg706
g12
sssS'2655'
p709
(dp710
sS'137'
p711
(dp712
Vplace
p713
(dp714
S'atmosphere'
p715
g12
ssVcrowded
p716
(dp717
S'food'
p718
g6
sg715
g6
sssS'490'
p719
(dp720
sS'3419'
p721
(dp722
Vcuisine
p723
(dp724
S'overhaul'
p725
g12
ssVis
p726
(dp727
S'food'
p728
g6
sg725
g6
sssS'1839'
p729
(dp730
VFood
p731
(dp732
S'food'
p733
g6
ssVgreat
p734
(dp735
g733
g6
sS'service'
p736
g6
sssS'29'
p737
(dp738
Vroom
p739
(dp740
S'military_service'
p741
g6
sssS'407'
p742
(dp743
Vsushi
p744
(dp745
S'food'
p746
g45
ssVseemed
p747
(dp748
g746
g6
sssS'2407'
p749
(dp750
Vreason
p751
(dp752
S'atmosphere'
p753
g6
sssS'2156'
p754
(dp755
sS'938'
p756
(dp757
sS'403'
p758
(dp759
Vaverage
p760
(dp761
S'food'
p762
g6
ssVit
p763
(dp764
g762
g6
ssVnight
p765
(dp766
g762
g45
sssS'2403'
p767
(dp768
sS'2400'
p769
(dp770
Vtofu
p771
(dp772
S'food'
p773
g6
sS'service'
p774
g6
ssVsalad
p775
(dp776
g773
g6
ssVbasic
p777
(dp778
g773
g6
sg774
g6
sssS'2153'
p779
(dp780
sS'930'
p781
(dp782
Vvodka
p783
(dp784
S'food'
p785
g12
ssVcocktail
p786
(dp787
g785
g12
sssS'937'
p788
(dp789
VPRICES
p790
(dp791
S'monetary_value'
p792
g6
sssS'936'
p793
(dp794
Vcame
p795
(dp796
S'food'
p797
g6
sssS'935'
p798
(dp799
sS'2409'
p800
(dp801
Vdelivery
p802
(dp803
S'service'
p804
g6
ssVheel
p805
(dp806
g804
g6
sssS'414'
p807
(dp808
Vfood
p809
(dp810
S'food'
p811
g12
sssS'1952'
p812
(dp813
Vfood
p814
(dp815
S'food'
p816
g12
ssVservice
p817
(dp818
g816
g6
sS'service'
p819
g6
ssVexcellent
p820
(dp821
g816
g6
sg819
g6
sssS'3567'
p822
(dp823
Vfritter
p824
(dp825
S'food'
p826
g6
sssS'3242'
p827
(dp828
sS'3247'
p829
(dp830
Vspinach
p831
(dp832
S'food'
p833
g45
sssS'3245'
p834
(dp835
Vbuns
p836
(dp837
S'food'
p838
g45
ssVgood
p839
(dp840
g838
g6
sS'price'
p841
g6
sssS'378'
p842
(dp843
Vfish
p844
(dp845
S'food'
p846
g12
sssS'827'
p847
(dp848
Vsurprise
p849
(dp850
S'food'
p851
g12
sS'service'
p852
g12
ssVIt
p853
(dp854
g851
g6
sssS'826'
p855
(dp856
sS'1063'
p857
(dp858
Vforgivable
p859
(dp860
S'food'
p861
g6
sssS'822'
p862
(dp863
Vreviews
p864
(dp865
S'service'
p866
g12
sssS'704'
p867
(dp868
Vprices
p869
(dp870
S'monetary_value'
p871
g6
ssVfabulous
p872
(dp873
S'food'
p874
g6
sg871
g6
ssVcheap
p875
(dp876
g874
g6
sg871
g6
ssVit
p877
(dp878
g874
g6
sg871
g6
sssS'705'
p879
(dp880
VGREAT
p881
(dp882
S'food'
p883
g6
sS'service'
p884
g6
ssVportions
p885
(dp886
g883
g6
sS'atmosphere'
p887
g6
sg884
g6
ssVfood
p888
(dp889
g883
g12
sg887
g12
sg884
g12
ssVcheap
p890
(dp891
g883
g6
sg884
g6
ssVIT
p892
(dp893
g883
g6
ssVit
p894
(dp895
g883
g6
sg884
g6
ssVNOT
p896
(dp897
g883
g6
sg887
g6
sg884
g6
ssVsmall
p898
(dp899
g883
g6
sg887
g6
sg884
g6
ssVmean
p900
(dp901
g883
g6
sg887
g6
sg884
g6
sssS'706'
p902
(dp903
sS'1483'
p904
(dp905
Vfriendlier
p906
(dp907
S'food'
p908
g6
sssS'1480'
p909
(dp910
sS'397'
p911
(dp912
Vroll
p913
(dp914
S'food'
p915
g12
sssS'1485'
p916
(dp917
VPizza
p918
(dp919
S'food'
p920
g6
sssS'394'
p921
(dp922
Vassortment
p923
(dp924
S'service'
p925
g12
ssVfish
p926
(dp927
S'food'
p928
g12
sg925
g12
sssS'3306'
p929
(dp930
sS'3303'
p931
(dp932
VBisque
p933
(dp934
S'food'
p935
g6
sssS'2309'
p936
(dp937
sS'928'
p938
(dp939
g254
(dp940
S'food'
p941
g6
ssVcare
p942
(dp943
g941
g6
sS'overhaul'
p944
g6
sssS'1710'
p945
(dp946
Vwaiter
p947
(dp948
S'service'
p949
g45
sssS'1717'
p950
(dp951
Vtake
p952
(dp953
S'serve'
p954
g6
sssS'1716'
p955
(dp956
VStrike
p957
(dp958
S'atmosphere'
p959
g6
sS'service'
p960
g6
ssVplace
p961
(dp962
g959
g12
sssS'1715'
p963
(dp964
sS'1718'
p965
(dp966
sS'2305'
p967
(dp968
sS'2798'
p969
(dp970
sS'1653'
p971
(dp972
sS'2289'
p973
(dp974
Vgood
p975
(dp976
S'price'
p977
g6
sS'service'
p978
g6
ssVservice
p979
(dp980
g978
g6
sssS'1139'
p981
(dp982
sS'3666'
p983
(dp984
sS'580'
p985
(dp986
Vconcluded
p987
(dp988
S'service'
p989
g6
sssS'3662'
p990
(dp991
Vdish
p992
(dp993
S'service'
p994
g6
ssVattentive
p995
(dp996
S'food'
p997
g6
sg994
g6
ssVservice
p998
(dp999
g994
g6
sssS'2281'
p1000
(dp1001
sS'3668'
p1002
(dp1003
Vpresentation
p1004
(dp1005
S'service'
p1006
g12
sssS'588'
p1007
(dp1008
Vfood
p1009
(dp1010
S'food'
p1011
g12
ssVcool
p1012
(dp1013
g1011
g6
sS'service'
p1014
g6
ssVexperience
p1015
(dp1016
g1011
g12
ssVexcellent
p1017
(dp1018
g1011
g6
sssS'1633'
p1019
(dp1020
sS'2838'
p1021
(dp1022
sS'3159'
p1023
(dp1024
Vcoffee
p1025
(dp1026
S'food'
p1027
g12
ssVgood
p1028
(dp1029
g1027
g6
sS'price'
p1030
g6
sssS'2834'
p1031
(dp1032
sS'3107'
p1033
(dp1034
sS'2275'
p1035
(dp1036
Vhole-in-the-wall
p1037
(dp1038
S'atmosphere'
p1039
g45
sS'ambiance'
p1040
g45
ssVplace
p1041
(dp1042
g1039
g12
sssS'3019'
p1043
(dp1044
Vcouple
p1045
(dp1046
S'serve'
p1047
g12
ssVhusband
p1048
(dp1049
g1047
g12
sS'service'
p1050
g12
sssS'1430'
p1051
(dp1052
Vplace
p1053
(dp1054
S'atmosphere'
p1055
g12
sssS'418'
p1056
(dp1057
Vminutes
p1058
(dp1059
S'price'
p1060
g45
sssS'2574'
p1061
(dp1062
Vorganic
p1063
(dp1064
S'food'
p1065
g6
ssVIngredients
p1066
(dp1067
g1065
g6
sssS'3016'
p1068
(dp1069
Vmake
p1070
(dp1071
S'food'
p1072
g6
sS'price'
p1073
g6
ssVqualities
p1074
(dp1075
g1073
g6
sssS'2573'
p1076
(dp1077
sS'3014'
p1078
(dp1079
Ventered
p1080
(dp1081
S'serve'
p1082
g6
sS'service'
p1083
g6
ssVcall
p1084
(dp1085
g1083
g12
ssVfirst
p1086
(dp1087
g1083
g6
sssS'2571'
p1088
(dp1089
VAmbience
p1090
(dp1091
S'atmosphere'
p1092
g6
ssVcute
p1093
(dp1094
S'food'
p1095
g6
sg1092
g6
sssS'2378'
p1096
(dp1097
Vshort-order
p1098
(dp1099
S'food'
p1100
g45
sS'service'
p1101
g45
ssVservice
p1102
(dp1103
g1101
g6
sssS'2379'
p1104
(dp1105
Vlike
p1106
(dp1107
S'food'
p1108
g6
sssS'512'
p1109
(dp1110
Vrude
p1111
(dp1112
S'food'
p1113
g6
sssS'1003'
p1114
(dp1115
sS'1001'
p1116
(dp1117
Vplace
p1118
(dp1119
S'atmosphere'
p1120
g12
sssS'1349'
p1121
(dp1122
Vevening
p1123
(dp1124
S'service'
p1125
g6
ssVfriends
p1126
(dp1127
g1125
g6
sssS'3590'
p1128
(dp1129
sS'2590'
p1130
(dp1131
sS'3595'
p1132
(dp1133
sS'629'
p1134
(dp1135
sS'2051'
p1136
(dp1137
Vname
p1138
(dp1139
S'service'
p1140
g12
sssS'974'
p1141
(dp1142
Vplace
p1143
(dp1144
S'atmosphere'
p1145
g45
sS'service'
p1146
g45
ssVcraving
p1147
(dp1148
g1145
g45
sg1146
g45
ssVtimes
p1149
(dp1150
g1146
g12
sssS'971'
p1151
(dp1152
Vchicken
p1153
(dp1154
S'food'
p1155
g6
sssS'970'
p1156
(dp1157
sS'3696'
p1158
(dp1159
sS'182'
p1160
(dp1161
sS'180'
p1162
(dp1163
Vside
p1164
(dp1165
S'food'
p1166
g12
sssS'3089'
p1167
(dp1168
Vfan
p1169
(dp1170
S'service'
p1171
g45
sssS'1507'
p1172
(dp1173
Vstay
p1174
(dp1175
S'service'
p1176
g6
sssS'650'
p1177
(dp1178
Vis
p1179
(dp1180
S'food'
p1181
g6
sssS'185'
p1182
(dp1183
Vfood
p1184
(dp1185
S'food'
p1186
g6
sS'service'
p1187
g6
ssVdo
p1188
(dp1189
g1187
g6
ssVspicy
p1190
(dp1191
g1186
g12
sg1187
g12
sssS'1508'
p1192
(dp1193
Vservice
p1194
(dp1195
S'service'
p1196
g6
sssS'2114'
p1197
(dp1198
sS'2116'
p1199
(dp1200
Vrolls
p1201
(dp1202
S'food'
p1203
g45
sssS'659'
p1204
(dp1205
sS'2623'
p1206
(dp1207
Vplace
p1208
(dp1209
S'atmosphere'
p1210
g12
sssS'1123'
p1211
(dp1212
Vnight
p1213
(dp1214
S'food'
p1215
g6
sS'service'
p1216
g6
ssVrolls
p1217
(dp1218
g1215
g6
sg1216
g6
ssVkitchen
p1219
(dp1220
g1216
g45
sssS'2624'
p1221
(dp1222
g254
(dp1223
S'food'
p1224
g6
ssVthought
p1225
(dp1226
g1224
g6
ssVplace
p1227
(dp1228
g1224
g12
sS'atmosphere'
p1229
g12
ssVoverrated
p1230
(dp1231
g1224
g6
sg1229
g6
sssS'3526'
p1232
(dp1233
Vgo
p1234
(dp1235
S'service'
p1236
g6
sssS'3520'
p1237
(dp1238
sS'3087'
p1239
(dp1240
Vdrinks
p1241
(dp1242
S'food'
p1243
g45
sssS'1917'
p1244
(dp1245
Vfood
p1246
(dp1247
S'food'
p1248
g12
ssVgood
p1249
(dp1250
g1248
g6
sS'price'
p1251
g6
sssS'862'
p1252
(dp1253
Vsimple
p1254
(dp1255
S'service'
p1256
g6
ssVdecor
p1257
(dp1258
g1256
g45
sssS'867'
p1259
(dp1260
sS'2129'
p1261
(dp1262
sS'2699'
p1263
(dp1264
sS'2696'
p1265
(dp1266
Vmenu
p1267
(dp1268
S'food'
p1269
g6
ssVtasting
p1270
(dp1271
g1269
g6
sS'service'
p1272
g6
sssS'2029'
p1273
(dp1274
Vproblem
p1275
(dp1276
S'atmosphere'
p1277
g45
sssS'885'
p1278
(dp1279
Vfood
p1280
(dp1281
S'food'
p1282
g12
sS'atmosphere'
p1283
g12
ssVplace
p1284
(dp1285
g1283
g12
ssVhorrible
p1286
(dp1287
g1282
g6
sg1283
g6
sssS'888'
p1288
(dp1289
Vasked
p1290
(dp1291
S'food'
p1292
g6
ssVone
p1293
(dp1294
g1292
g45
sssS'278'
p1295
(dp1296
sS'279'
p1297
(dp1298
VColonies
p1299
(dp1300
S'food'
p1301
g45
sS'atmosphere'
p1302
g45
sS'ambiance'
p1303
g45
ssVit
p1304
(dp1305
g1301
g6
sg1302
g6
ssVway
p1306
(dp1307
g1302
g12
sssS'3233'
p1308
(dp1309
sS'1966'
p1310
(dp1311
Vplace
p1312
(dp1313
S'atmosphere'
p1314
g12
sssS'188'
p1315
(dp1316
Vpart
p1317
(dp1318
S'service'
p1319
g12
ssVservice
p1320
(dp1321
g1319
g6
sssS'1960'
p1322
(dp1323
sS'1613'
p1324
(dp1325
sS'1610'
p1326
(dp1327
Vpizza
p1328
(dp1329
S'food'
p1330
g45
sssS'328'
p1331
(dp1332
Vgreat
p1333
(dp1334
S'food'
p1335
g6
sS'atmosphere'
p1336
g6
sS'service'
p1337
g6
ssg254
(dp1338
g1335
g6
sg1336
g6
sg1337
g6
ssVit
p1339
(dp1340
g1335
g6
sg1336
g6
sg1337
g6
ssVended
p1341
(dp1342
g1335
g6
sg1337
g6
ssVplace
p1343
(dp1344
g1335
g12
sg1336
g12
sg1337
g12
ssVglad
p1345
(dp1346
g1335
g6
sg1336
g6
sg1337
g6
sssS'562'
p1347
(dp1348
Vtable
p1349
(dp1350
S'food'
p1351
g45
sssS'774'
p1352
(dp1353
sS'777'
p1354
(dp1355
Vcriticize
p1356
(dp1357
S'food'
p1358
g6
sssS'2877'
p1359
(dp1360
Vkids
p1361
(dp1362
S'service'
p1363
g12
ssVlove
p1364
(dp1365
S'servicing'
p1366
g6
sg1363
g6
sssS'2876'
p1367
(dp1368
Vexperience
p1369
(dp1370
S'food'
p1371
g12
ssVtimes
p1372
(dp1373
g1371
g6
sS'service'
p1374
g6
sssS'206'
p1375
(dp1376
Vfood
p1377
(dp1378
S'food'
p1379
g12
ssVis
p1380
(dp1381
g1379
g6
ssVits
p1382
(dp1383
g1379
g6
ssVdelicious
p1384
(dp1385
g1379
g6
sssS'3625'
p1386
(dp1387
sS'3355'
p1388
(dp1389
Vcake
p1390
(dp1391
S'food'
p1392
g12
ssg254
(dp1393
g1392
g6
ssVthought
p1394
(dp1395
g1392
g6
sssS'2979'
p1396
(dp1397
Vfood
p1398
(dp1399
S'food'
p1400
g12
sssS'72'
p1401
(dp1402
sS'71'
p1403
(dp1404
Varea
p1405
(dp1406
S'food'
p1407
g12
sS'service'
p1408
g12
ssVMADE
p1409
(dp1410
g1408
g6
ssVplace
p1411
(dp1412
g1407
g12
sS'atmosphere'
p1413
g12
sg1408
g12
ssVservice
p1414
(dp1415
g1407
g45
sg1408
g45
ssVPizza
p1416
(dp1417
g1407
g12
sg1408
g12
sssS'2546'
p1418
(dp1419
sS'1047'
p1420
(dp1421
Vfind
p1422
(dp1423
S'service'
p1424
g6
sssS'2235'
p1425
(dp1426
Vone
p1427
(dp1428
S'food'
p1429
g45
sssS'1683'
p1430
(dp1431
Vfood
p1432
(dp1433
S'food'
p1434
g12
sS'service'
p1435
g12
ssVservice
p1436
(dp1437
g1435
g6
sssS'1687'
p1438
(dp1439
sS'1766'
p1440
(dp1441
VFood
p1442
(dp1443
S'food'
p1444
g6
sssS'1146'
p1445
(dp1446
sS'3289'
p1447
(dp1448
sS'1148'
p1449
(dp1450
sS'3479'
p1451
(dp1452
sS'3078'
p1453
(dp1454
sS'2096'
p1455
(dp1456
Vplaces
p1457
(dp1458
S'atmosphere'
p1459
g12
sssS'2093'
p1460
(dp1461
Vgo
p1462
(dp1463
S'service'
p1464
g6
sssS'3652'
p1465
(dp1466
Vcosts
p1467
(dp1468
S'monetary_value'
p1469
g12
sssS'2526'
p1470
(dp1471
Vprices
p1472
(dp1473
S'serve'
p1474
g6
sS'monetary_value'
p1475
g6
sS'service'
p1476
g6
ssVtake
p1477
(dp1478
g1474
g6
sg1476
g6
ssVDeliveries
p1479
(dp1480
g1476
g6
sssS'1302'
p1481
(dp1482
Vprices
p1483
(dp1484
S'monetary_value'
p1485
g45
ssVget
p1486
(dp1487
S'serve'
p1488
g6
sg1485
g6
sssS'2488'
p1489
(dp1490
sS'695'
p1491
(dp1492
VCa
p1493
(dp1494
S'ambiance'
p1495
g6
ssVwait
p1496
(dp1497
g1495
g6
sS'service'
p1498
g6
sssS'3120'
p1499
(dp1500
Vfood
p1501
(dp1502
S'food'
p1503
g12
sssS'543'
p1504
(dp1505
sS'527'
p1506
(dp1507
Vcouple
p1508
(dp1509
S'food'
p1510
g12
sS'serve'
p1511
g12
ssVdrinks
p1512
(dp1513
g1510
g12
sssS'547'
p1514
(dp1515
sS'544'
p1516
(dp1517
Vspot
p1518
(dp1519
S'food'
p1520
g6
sS'service'
p1521
g6
ssVIt
p1522
(dp1523
g1520
g6
sssS'1467'
p1524
(dp1525
Vtimes
p1526
(dp1527
S'service'
p1528
g12
sssS'1466'
p1529
(dp1530
Vconversation
p1531
(dp1532
S'food'
p1533
g12
sS'price'
p1534
g12
sS'service'
p1535
g12
ssVattorney
p1536
(dp1537
g1535
g12
ssVside
p1538
(dp1539
g1533
g12
sg1535
g12
sssS'2241'
p1540
(dp1541
sS'2243'
p1542
(dp1543
Vprices
p1544
(dp1545
S'food'
p1546
g6
sS'monetary_value'
p1547
g6
sS'service'
p1548
g6
ssVnear
p1549
(dp1550
g1546
g6
sg1548
g6
ssVCollege
p1551
(dp1552
g1548
g6
ssVlocation
p1553
(dp1554
g1548
g12
ssVreasonable
p1555
(dp1556
g1546
g6
sg1547
g6
sg1548
g6
ssVgo
p1557
(dp1558
g1548
g6
sssS'997'
p1559
(dp1560
sS'2467'
p1561
(dp1562
sS'2461'
p1563
(dp1564
VCUISINE
p1565
(dp1566
S'overhaul'
p1567
g6
sssS'992'
p1568
(dp1569
Vkind
p1570
(dp1571
S'food'
p1572
g12
sssS'2704'
p1573
(dp1574
sS'2468'
p1575
(dp1576
sS'126'
p1577
(dp1578
VSeating
p1579
(dp1580
S'service'
p1581
g6
sssS'1020'
p1582
(dp1583
Vdepends
p1584
(dp1585
S'food'
p1586
g6
ssVreally
p1587
(dp1588
g1586
g6
sssS'3379'
p1589
(dp1590
VSquare
p1591
(dp1592
S'atmosphere'
p1593
g6
sS'ambiance'
p1594
g6
ssVplace
p1595
(dp1596
g1593
g12
sssS'2068'
p1597
(dp1598
sS'2146'
p1599
(dp1600
Vfood
p1601
(dp1602
S'food'
p1603
g12
ssVatmosphere
p1604
(dp1605
g1603
g12
sS'atmosphere'
p1606
g12
ssVmakes
p1607
(dp1608
g1603
g6
sg1606
g6
sS'military_service'
p1609
g6
ssVstaff
p1610
(dp1611
g1603
g12
sg1606
g12
sg1609
g12
sssS'2145'
p1612
(dp1613
sS'411'
p1614
(dp1615
Vbrought
p1616
(dp1617
S'service'
p1618
g6
ssVwas
p1619
(dp1620
S'ambiance'
p1621
g6
sg1618
g6
sssS'413'
p1622
(dp1623
Vcheck
p1624
(dp1625
S'serve'
p1626
g6
sssS'2060'
p1627
(dp1628
sS'922'
p1629
(dp1630
Vservice
p1631
(dp1632
S'service'
p1633
g6
sssS'2796'
p1634
(dp1635
Vfood
p1636
(dp1637
S'food'
p1638
g12
sssS'419'
p1639
(dp1640
sS'2066'
p1641
(dp1642
sS'313'
p1643
(dp1644
sS'317'
p1645
(dp1646
sS'314'
p1647
(dp1648
Vquality
p1649
(dp1650
S'price'
p1651
g12
sssS'1920'
p1652
(dp1653
Varrived
p1654
(dp1655
S'food'
p1656
g6
sssS'1921'
p1657
(dp1658
Vfood
p1659
(dp1660
S'food'
p1661
g12
ssVsurprise
p1662
(dp1663
g1661
g6
sS'service'
p1664
g6
sssS'448'
p1665
(dp1666
Vpies
p1667
(dp1668
S'food'
p1669
g6
ssVget
p1670
(dp1671
g1669
g6
sS'serve'
p1672
g6
sssS'3272'
p1673
(dp1674
Vcollection
p1675
(dp1676
S'service'
p1677
g12
sssS'832'
p1678
(dp1679
sS'3473'
p1680
(dp1681
sS'1245'
p1682
(dp1683
sS'3570'
p1684
(dp1685
Vpeople
p1686
(dp1687
S'military_service'
p1688
g6
sssS'2359'
p1689
(dp1690
Vbill
p1691
(dp1692
S'food'
p1693
g12
sS'service'
p1694
g12
ssVsteep
p1695
(dp1696
g1693
g6
sS'ambiance'
p1697
g6
sg1694
g6
ssVexperience
p1698
(dp1699
g1693
g12
sssS'722'
p1700
(dp1701
Vambience
p1702
(dp1703
S'atmosphere'
p1704
g45
ssVdark
p1705
(dp1706
S'food'
p1707
g6
sg1704
g6
ssVit
p1708
(dp1709
g1707
g6
sg1704
g6
sssS'363'
p1710
(dp1711
Vfine
p1712
(dp1713
S'price'
p1714
g6
ssVlist
p1715
(dp1716
g1714
g12
sssS'2937'
p1717
(dp1718
Vsqueeze
p1719
(dp1720
S'service'
p1721
g6
ssVtreat
p1722
(dp1723
S'food'
p1724
g6
sg1721
g6
sssS'2933'
p1725
(dp1726
sS'2931'
p1727
(dp1728
Vfood
p1729
(dp1730
S'food'
p1731
g12
ssg254
(dp1732
g1731
g6
sS'price'
p1733
g6
ssVgood
p1734
(dp1735
g1731
g6
sg1733
g6
ssVleft
p1736
(dp1737
g1731
g6
sg1733
g6
sS'ambiance'
p1738
g6
sssS'382'
p1739
(dp1740
Vcalamari
p1741
(dp1742
S'food'
p1743
g45
ssVnoodles
p1744
(dp1745
g1743
g6
ssVyummy
p1746
(dp1747
g1743
g6
ssVcomes
p1748
(dp1749
g1743
g6
sssS'3313'
p1750
(dp1751
Vwent
p1752
(dp1753
S'service'
p1754
g6
sssS'444'
p1755
(dp1756
VPatsy
p1757
(dp1758
S'service'
p1759
g6
sssS'784'
p1760
(dp1761
Vplace
p1762
(dp1763
S'atmosphere'
p1764
g12
sssS'785'
p1765
(dp1766
Vfeel
p1767
(dp1768
S'atmosphere'
p1769
g6
ssVzen
p1770
(dp1771
g1769
g6
sS'service'
p1772
g6
sssS'2065'
p1773
(dp1774
Vgo
p1775
(dp1776
S'service'
p1777
g6
sssS'1643'
p1778
(dp1779
sS'1642'
p1780
(dp1781
Vhad
p1782
(dp1783
S'serve'
p1784
g6
sssS'1649'
p1785
(dp1786
Vsushi
p1787
(dp1788
S'food'
p1789
g12
sssS'2692'
p1790
(dp1791
Vattentive
p1792
(dp1793
S'food'
p1794
g6
sS'military_service'
p1795
g6
ssVstaff
p1796
(dp1797
g1795
g12
sssS'3617'
p1798
(dp1799
Vneighborhood
p1800
(dp1801
S'ambiance'
p1802
g12
sssS'3619'
p1803
(dp1804
sS'571'
p1805
(dp1806
Vtime
p1807
(dp1808
S'service'
p1809
g12
sssS'60'
p1810
(dp1811
sS'2195'
p1812
(dp1813
Vservice
p1814
(dp1815
S'service'
p1816
g6
ssVexcellent
p1817
(dp1818
S'food'
p1819
g6
sg1816
g6
sssS'3168'
p1820
(dp1821
Vbagel
p1822
(dp1823
S'food'
p1824
g12
sS'service'
p1825
g12
ssVcorner
p1826
(dp1827
g1825
g12
ssVway
p1828
(dp1829
g1824
g12
sS'atmosphere'
p1830
g12
sg1825
g12
sssS'2197'
p1831
(dp1832
Vneed
p1833
(dp1834
S'food'
p1835
g6
sS'price'
p1836
g6
sS'atmosphere'
p1837
g6
ssVgood
p1838
(dp1839
g1835
g6
sg1836
g6
ssVplace
p1840
(dp1841
g1835
g12
sg1836
g12
sg1837
g12
ssVsushi
p1842
(dp1843
g1835
g45
sssS'2198'
p1844
(dp1845
Vgood
p1846
(dp1847
S'price'
p1848
g6
sssS'2199'
p1849
(dp1850
sS'3162'
p1851
(dp1852
Vtown
p1853
(dp1854
S'ambiance'
p1855
g6
sssS'2807'
p1856
(dp1857
Vplace
p1858
(dp1859
S'atmosphere'
p1860
g12
sssS'2569'
p1861
(dp1862
Vreviews
p1863
(dp1864
S'service'
p1865
g6
sssS'2406'
p1866
(dp1867
Vfritters
p1868
(dp1869
S'food'
p1870
g45
sssS'1423'
p1871
(dp1872
Vhotpot
p1873
(dp1874
S'food'
p1875
g6
sS'overhaul'
p1876
g6
sS'service'
p1877
g6
ssVcooking
p1878
(dp1879
g1875
g45
sg1876
g45
ssVspecial
p1880
(dp1881
g1875
g6
ssVrestaurant
p1882
(dp1883
g1875
g12
sg1876
g12
sg1877
g12
sssS'2207'
p1884
(dp1885
Vseated
p1886
(dp1887
S'food'
p1888
g6
sS'ambiance'
p1889
g6
ssVus
p1890
(dp1891
g1889
g6
sssS'3364'
p1892
(dp1893
Vspot
p1894
(dp1895
S'service'
p1896
g12
sssS'1428'
p1897
(dp1898
g254
(dp1899
S'food'
p1900
g6
sS'price'
p1901
g6
ssVwent
p1902
(dp1903
g1900
g6
sg1901
g6
sS'service'
p1904
g6
ssVgood
p1905
(dp1906
g1900
g6
sg1901
g6
ssVit
p1907
(dp1908
g1900
g6
sssS'3366'
p1909
(dp1910
Vfood
p1911
(dp1912
S'food'
p1913
g12
ssVpastas
p1914
(dp1915
g1913
g12
sssS'1373'
p1916
(dp1917
sS'1584'
p1918
(dp1919
VSHOW
p1920
(dp1921
S'service'
p1922
g6
sssS'1038'
p1923
(dp1924
Vservice
p1925
(dp1926
S'service'
p1927
g6
sssS'732'
p1928
(dp1929
Vburger
p1930
(dp1931
S'food'
p1932
g12
ssVgreat
p1933
(dp1934
g1932
g6
sS'service'
p1935
g6
sssS'508'
p1936
(dp1937
sS'739'
p1938
(dp1939
Vwaiter
p1940
(dp1941
S'service'
p1942
g45
ssVfound
p1943
(dp1944
S'price'
p1945
g6
sg1942
g6
sssS'1030'
p1946
(dp1947
Vjob
p1948
(dp1949
S'service'
p1950
g12
ssVwaitresses
p1951
(dp1952
g1950
g6
ssVfriendly
p1953
(dp1954
S'military_service'
p1955
g6
sg1950
g6
sssS'2151'
p1956
(dp1957
Vrate
p1958
(dp1959
S'price'
p1960
g6
sssS'2428'
p1961
(dp1962
sS'1358'
p1963
(dp1964
Vprice
p1965
(dp1966
S'monetary_value'
p1967
g12
sssS'468'
p1968
(dp1969
Vneed
p1970
(dp1971
S'atmosphere'
p1972
g6
sS'service'
p1973
g6
ssVsnobs
p1974
(dp1975
g1973
g6
ssVkind
p1976
(dp1977
S'food'
p1978
g12
sg1972
g12
sg1973
g12
sssS'2580'
p1979
(dp1980
sS'1171'
p1981
(dp1982
sS'464'
p1983
(dp1984
Vdishes
p1985
(dp1986
S'food'
p1987
g12
sS'atmosphere'
p1988
g12
sS'service'
p1989
g12
ssVfood
p1990
(dp1991
g1987
g12
ssVphenomenal
p1992
(dp1993
g1987
g6
ssVambiance
p1994
(dp1995
g1987
g45
sg1988
g45
ssVveal
p1996
(dp1997
g1987
g6
sg1988
g6
sg1989
g6
ssVminimal
p1998
(dp1999
g1987
g6
sg1988
g6
sssS'1351'
p2000
(dp2001
Vwork
p2002
(dp2003
S'service'
p2004
g6
sssS'2423'
p2005
(dp2006
g254
(dp2007
S'food'
p2008
g6
ssVlive
p2009
(dp2010
g2008
g6
ssVopened
p2011
(dp2012
g2008
g6
sssS'402'
p2013
(dp2014
g254
(dp2015
S'food'
p2016
g6
ssVSpecial
p2017
(dp2018
g2016
g6
sssS'463'
p2019
(dp2020
sS'608'
p2021
(dp2022
Vwas
p2023
(dp2024
S'food'
p2025
g6
sS'ambiance'
p2026
g6
ssVit
p2027
(dp2028
g2025
g6
ssVwalked
p2029
(dp2030
g2025
g6
sssS'164'
p2031
(dp2032
sS'167'
p2033
(dp2034
Vstuff
p2035
(dp2036
S'food'
p2037
g45
sssS'966'
p2038
(dp2039
Vquality
p2040
(dp2041
S'price'
p2042
g12
sssS'2898'
p2043
(dp2044
Vportion
p2045
(dp2046
S'atmosphere'
p2047
g12
sssS'783'
p2048
(dp2049
sS'969'
p2050
(dp2051
sS'3685'
p2052
(dp2053
Vmoney
p2054
(dp2055
S'price'
p2056
g12
sssS'2109'
p2057
(dp2058
Vechoes
p2059
(dp2060
S'service'
p2061
g12
ssVservice
p2062
(dp2063
g2061
g45
sssS'1102'
p2064
(dp2065
sS'1518'
p2066
(dp2067
Vplace
p2068
(dp2069
S'atmosphere'
p2070
g12
sssS'2103'
p2071
(dp2072
Vbrought
p2073
(dp2074
S'food'
p2075
g6
sS'service'
p2076
g6
ssVfresh
p2077
(dp2078
g2075
g6
sssS'1517'
p2079
(dp2080
Vplace
p2081
(dp2082
S'atmosphere'
p2083
g12
sssS'2100'
p2084
(dp2085
sS'1109'
p2086
(dp2087
Vpotatoes
p2088
(dp2089
S'food'
p2090
g6
ssVhands
p2091
(dp2092
g2090
g6
sS'service'
p2093
g6
sssS'2730'
p2094
(dp2095
sS'2635'
p2096
(dp2097
sS'2739'
p2098
(dp2099
sS'3533'
p2100
(dp2101
Vplace
p2102
(dp2103
S'atmosphere'
p2104
g12
sssS'1158'
p2105
(dp2106
sS'1816'
p2107
(dp2108
Vspot
p2109
(dp2110
S'service'
p2111
g6
sssS'1811'
p2112
(dp2113
Vagenda
p2114
(dp2115
S'food'
p2116
g12
sssS'2121'
p2117
(dp2118
VIndoor
p2119
(dp2120
S'food'
p2121
g6
ssVcozy
p2122
(dp2123
g2121
g6
sS'service'
p2124
g6
sssS'2437'
p2125
(dp2126
sS'875'
p2127
(dp2128
Varrived
p2129
(dp2130
S'food'
p2131
g6
ssVempty
p2132
(dp2133
g2131
g6
sS'service'
p2134
g6
ssVrestaurant
p2135
(dp2136
g2131
g12
sg2134
g12
sssS'1818'
p2137
(dp2138
sS'2794'
p2139
(dp2140
sS'871'
p2141
(dp2142
Vit
p2143
(dp2144
S'food'
p2145
g6
ssVdeal
p2146
(dp2147
g2145
g6
sS'service'
p2148
g6
sssS'2742'
p2149
(dp2150
Vmartini
p2151
(dp2152
S'food'
p2153
g12
sssS'3181'
p2154
(dp2155
sS'3183'
p2156
(dp2157
sS'2748'
p2158
(dp2159
Vthing
p2160
(dp2161
S'food'
p2162
g6
sS'service'
p2163
g6
ssVservice
p2164
(dp2165
g2163
g6
sssS'3482'
p2166
(dp2167
sS'647'
p2168
(dp2169
Vfood
p2170
(dp2171
S'food'
p2172
g12
sssS'897'
p2173
(dp2174
sS'899'
p2175
(dp2176
VFood
p2177
(dp2178
S'food'
p2179
g6
sssS'646'
p2180
(dp2181
sS'671'
p2182
(dp2183
Vpot
p2184
(dp2185
S'service'
p2186
g45
ssVplatters
p2187
(dp2188
g2186
g6
sssS'2165'
p2189
(dp2190
Vbagel
p2191
(dp2192
S'food'
p2193
g12
sssS'3545'
p2194
(dp2195
sS'1601'
p2196
(dp2197
Ventrees
p2198
(dp2199
S'food'
p2200
g12
sssS'3224'
p2201
(dp2202
Vmenu
p2203
(dp2204
S'food'
p2205
g12
sssS'1974'
p2206
(dp2207
Vwas
p2208
(dp2209
S'food'
p2210
g6
sS'ambiance'
p2211
g6
ssVit
p2212
(dp2213
g2210
g6
sssS'1605'
p2214
(dp2215
sS'355'
p2216
(dp2217
sS'353'
p2218
(dp2219
VMargarita
p2220
(dp2221
S'food'
p2222
g6
sssS'352'
p2223
(dp2224
sS'950'
p2225
(dp2226
sS'802'
p2227
(dp2228
VLobster
p2229
(dp2230
S'food'
p2231
g45
ssVOne
p2232
(dp2233
g2231
g6
sssS'1614'
p2234
(dp2235
Vcook
p2236
(dp2237
S'service'
p2238
g12
ssVaunt
p2239
(dp2240
g2238
g12
sssS'216'
p2241
(dp2242
Vtry
p2243
(dp2244
S'service'
p2245
g6
sssS'214'
p2246
(dp2247
Vattentive
p2248
(dp2249
S'food'
p2250
g6
sssS'1967'
p2251
(dp2252
sS'213'
p2253
(dp2254
Vwater
p2255
(dp2256
S'food'
p2257
g6
ssVmouth
p2258
(dp2259
g2257
g6
sS'service'
p2260
g6
sssS'210'
p2261
(dp2262
sS'2847'
p2263
(dp2264
Vwaiter
p2265
(dp2266
S'food'
p2267
g45
sS'service'
p2268
g45
ssVdessert
p2269
(dp2270
g2267
g12
sS'price'
p2271
g12
sg2268
g12
ssVBirthday
p2272
(dp2273
g2267
g12
ssVsaw
p2274
(dp2275
g2267
g6
sg2271
g6
sg2268
g6
ssVgift
p2276
(dp2277
g2267
g6
sg2271
g6
sg2268
g6
sssS'2844'
p2278
(dp2279
Vrestaurant
p2280
(dp2281
S'service'
p2282
g12
sssS'2968'
p2283
(dp2284
sS'3323'
p2285
(dp2286
sS'3326'
p2287
(dp2288
sS'3043'
p2289
(dp2290
Vreasonably
p2291
(dp2292
S'food'
p2293
g6
sS'serve'
p2294
g6
ssVget
p2295
(dp2296
g2294
g6
sssS'41'
p2297
(dp2298
sS'3044'
p2299
(dp2300
sS'3046'
p2301
(dp2302
Vposts
p2303
(dp2304
S'service'
p2305
g12
sssS'2323'
p2306
(dp2307
sS'2321'
p2308
(dp2309
Vplace
p2310
(dp2311
S'atmosphere'
p2312
g12
sssS'2320'
p2313
(dp2314
Vslow
p2315
(dp2316
S'food'
p2317
g6
sS'service'
p2318
g6
ssVService
p2319
(dp2320
g2318
g6
ssVpeople
p2321
(dp2322
g2317
g12
sS'military_service'
p2323
g12
sg2318
g12
sssS'1770'
p2324
(dp2325
Vsushi
p2326
(dp2327
S'food'
p2328
g45
ssVhad
p2329
(dp2330
g2328
g6
sS'serve'
p2331
g6
sssS'2325'
p2332
(dp2333
Vavailable
p2334
(dp2335
S'food'
p2336
g6
sS'service'
p2337
g6
ssVdishes
p2338
(dp2339
g2337
g12
sssS'1778'
p2340
(dp2341
Vnothing
p2342
(dp2343
S'food'
p2344
g12
sS'atmosphere'
p2345
g12
ssVatmosphere
p2346
(dp2347
g2345
g12
sssS'334'
p2348
(dp2349
Vfood
p2350
(dp2351
S'food'
p2352
g12
ssVwas
p2353
(dp2354
g2352
g6
sS'ambiance'
p2355
g6
sssS'1676'
p2356
(dp2357
sS'3488'
p2358
(dp2359
sS'1097'
p2360
(dp2361
Vcuisine
p2362
(dp2363
S'overhaul'
p2364
g12
sS'service'
p2365
g12
ssVspot
p2366
(dp2367
g2365
g12
sssS'679'
p2368
(dp2369
sS'1093'
p2370
(dp2371
VRoth
p2372
(dp2373
S'service'
p2374
g6
ssVcity
p2375
(dp2376
S'ambiance'
p2377
g12
sg2374
g12
ssVrestaurant
p2378
(dp2379
g2374
g6
sssS'1154'
p2380
(dp2381
sS'1156'
p2382
(dp2383
VJimmy
p2384
(dp2385
S'service'
p2386
g6
sssS'1150'
p2387
(dp2388
VJimmy
p2389
(dp2390
S'service'
p2391
g6
sssS'3487'
p2392
(dp2393
sS'3171'
p2394
(dp2395
sS'260'
p2396
(dp2397
Vdish
p2398
(dp2399
S'service'
p2400
g45
sssS'3133'
p2401
(dp2402
Vphrase
p2403
(dp2404
S'service'
p2405
g12
ssVhot
p2406
(dp2407
S'food'
p2408
g6
sg2405
g6
sssS'3647'
p2409
(dp2410
sS'2998'
p2411
(dp2412
Vfood
p2413
(dp2414
S'food'
p2415
g12
ssVplace
p2416
(dp2417
g2415
g12
sS'atmosphere'
p2418
g12
ssVgarden
p2419
(dp2420
g2415
g12
sg2418
g12
sS'ambiance'
p2421
g12
sssS'2553'
p2422
(dp2423
sS'3038'
p2424
(dp2425
VStaffs
p2426
(dp2427
S'military_service'
p2428
g6
ssVfriendly
p2429
(dp2430
g2428
g6
sssS'1977'
p2431
(dp2432
sS'1556'
p2433
(dp2434
sS'2991'
p2435
(dp2436
Vsteak
p2437
(dp2438
S'food'
p2439
g45
ssVfatty
p2440
(dp2441
g2439
g6
sS'service'
p2442
g6
sssS'57'
p2443
(dp2444
sS'2492'
p2445
(dp2446
sS'3030'
p2447
(dp2448
sS'2995'
p2449
(dp2450
Vscallops
p2451
(dp2452
S'food'
p2453
g45
sssS'2390'
p2454
(dp2455
g254
(dp2456
S'food'
p2457
g6
ssVdish
p2458
(dp2459
g2457
g6
sS'service'
p2460
g6
ssVsum
p2461
(dp2462
g2457
g6
sg2460
g6
ssVsure
p2463
(dp2464
g2457
g6
ssVitem
p2465
(dp2466
g2457
g45
sg2460
g45
sssS'54'
p2467
(dp2468
VBrewery
p2469
(dp2470
S'atmosphere'
p2471
g6
sS'service'
p2472
g6
ssVway
p2473
(dp2474
g2471
g12
sssS'1411'
p2475
(dp2476
sS'2252'
p2477
(dp2478
Voblige
p2479
(dp2480
S'food'
p2481
g6
sssS'1416'
p2482
(dp2483
sS'2399'
p2484
(dp2485
Vportions
p2486
(dp2487
S'atmosphere'
p2488
g6
sssS'2779'
p2489
(dp2490
Vappetizers
p2491
(dp2492
S'food'
p2493
g12
ssVordered
p2494
(dp2495
g2493
g6
ssVgave
p2496
(dp2497
g2493
g6
sssS'1320'
p2498
(dp2499
VNothing
p2500
(dp2501
S'food'
p2502
g12
ssVobvious
p2503
(dp2504
g2502
g6
sssS'2474'
p2505
(dp2506
Vfood
p2507
(dp2508
S'food'
p2509
g12
ssVstuff
p2510
(dp2511
g2509
g12
sssS'1326'
p2512
(dp2513
Vfood
p2514
(dp2515
S'food'
p2516
g12
sS'service'
p2517
g12
ssVfresh
p2518
(dp2519
g2516
g6
sg2517
g6
ssVtreated
p2520
(dp2521
g2517
g6
sssS'3003'
p2522
(dp2523
Vfish
p2524
(dp2525
S'food'
p2526
g12
sssS'2471'
p2527
(dp2528
sS'1325'
p2529
(dp2530
Vgirlfriend
p2531
(dp2532
S'service'
p2533
g12
ssVrelaxing
p2534
(dp2535
g2533
g12
sssS'983'
p2536
(dp2537
Vlunch
p2538
(dp2539
S'food'
p2540
g6
sssS'2772'
p2541
(dp2542
Vmenu
p2543
(dp2544
S'food'
p2545
g12
sssS'2478'
p2546
(dp2547
Vdishes
p2548
(dp2549
S'service'
p2550
g45
sssS'2785'
p2551
(dp2552
Vwarm
p2553
(dp2554
S'military_service'
p2555
g6
sS'service'
p2556
g6
ssVstaff
p2557
(dp2558
g2555
g12
sssS'2780'
p2559
(dp2560
sS'2782'
p2561
(dp2562
Vaverage
p2563
(dp2564
S'food'
p2565
g12
sssS'1851'
p2566
(dp2567
sS'1857'
p2568
(dp2569
Vdrink
p2570
(dp2571
S'food'
p2572
g45
ssVspace
p2573
(dp2574
g2572
g12
sS'ambiance'
p2575
g12
sssS'2172'
p2576
(dp2577
sS'918'
p2578
(dp2579
Vgo
p2580
(dp2581
S'service'
p2582
g6
sssS'1399'
p2583
(dp2584
Vowner
p2585
(dp2586
S'service'
p2587
g12
ssVfood
p2588
(dp2589
S'food'
p2590
g12
sg2587
g12
sssS'1398'
p2591
(dp2592
Vlunch
p2593
(dp2594
S'food'
p2595
g6
sS'service'
p2596
g6
ssVit
p2597
(dp2598
g2595
g6
ssVchoice
p2599
(dp2600
g2595
g12
sg2596
g12
sssS'917'
p2601
(dp2602
Vgood
p2603
(dp2604
S'price'
p2605
g6
sS'service'
p2606
g6
ssVService
p2607
(dp2608
g2606
g6
sssS'1528'
p2609
(dp2610
Vfood
p2611
(dp2612
S'food'
p2613
g12
ssVhave
p2614
(dp2615
g2613
g6
sS'serve'
p2616
g6
sssS'913'
p2617
(dp2618
Vhall
p2619
(dp2620
S'service'
p2621
g45
ssVrestaurant
p2622
(dp2623
g2621
g12
sssS'2259'
p2624
(dp2625
Vate
p2626
(dp2627
S'food'
p2628
g6
sssS'1420'
p2629
(dp2630
sS'2258'
p2631
(dp2632
sS'2608'
p2633
(dp2634
sS'1932'
p2635
(dp2636
Vrestaurant
p2637
(dp2638
S'service'
p2639
g6
sssS'665'
p2640
(dp2641
Vrecommend
p2642
(dp2643
S'service'
p2644
g6
sssS'3262'
p2645
(dp2646
sS'2256'
p2647
(dp2648
sS'1939'
p2649
(dp2650
Vgem
p2651
(dp2652
S'food'
p2653
g12
sssS'3467'
p2654
(dp2655
Vfood
p2656
(dp2657
S'food'
p2658
g12
sssS'3464'
p2659
(dp2660
Vreading
p2661
(dp2662
S'service'
p2663
g6
sssS'3463'
p2664
(dp2665
sS'1426'
p2666
(dp2667
g254
(dp2668
S'food'
p2669
g6
ssVis
p2670
(dp2671
g2669
g6
ssVwas
p2672
(dp2673
g2669
g6
sS'ambiance'
p2674
g6
sssS'3506'
p2675
(dp2676
g254
(dp2677
S'food'
p2678
g6
sS'overhaul'
p2679
g6
ssVcuisine
p2680
(dp2681
g2679
g12
ssVthought
p2682
(dp2683
g2678
g6
sg2679
g6
sssS'848'
p2684
(dp2685
sS'2672'
p2686
(dp2687
sS'3365'
p2688
(dp2689
VOpera
p2690
(dp2691
S'service'
p2692
g6
sssS'1417'
p2693
(dp2694
sS'3511'
p2695
(dp2696
Vgentleman
p2697
(dp2698
S'service'
p2699
g45
ssVcame
p2700
(dp2701
S'food'
p2702
g6
sg2699
g6
sssS'2928'
p2703
(dp2704
Vnothing
p2705
(dp2706
S'food'
p2707
g6
sS'atmosphere'
p2708
g6
ssVProblem
p2709
(dp2710
g2708
g6
sssS'2564'
p2711
(dp2712
sS'3362'
p2713
(dp2714
Vis
p2715
(dp2716
S'food'
p2717
g6
sS'military_service'
p2718
g6
ssVpart
p2719
(dp2720
g2717
g12
sg2718
g12
sS'service'
p2721
g12
ssVfamily
p2722
(dp2723
g2718
g12
sssS'2472'
p2724
(dp2725
Vfocus
p2726
(dp2727
S'service'
p2728
g12
sssS'3215'
p2729
(dp2730
Vdisgusting
p2731
(dp2732
S'food'
p2733
g6
sssS'1985'
p2734
(dp2735
sS'1980'
p2736
(dp2737
sS'1638'
p2738
(dp2739
Vprices
p2740
(dp2741
S'monetary_value'
p2742
g6
ssVreasonable
p2743
(dp2744
S'food'
p2745
g6
sg2742
g6
sssS'1639'
p2746
(dp2747
Vlist
p2748
(dp2749
S'price'
p2750
g12
sssS'1733'
p2751
(dp2752
VDecor
p2753
(dp2754
S'service'
p2755
g6
sssS'1735'
p2756
(dp2757
sS'2499'
p2758
(dp2759
sS'980'
p2760
(dp2761
sS'568'
p2762
(dp2763
Vtried
p2764
(dp2765
S'food'
p2766
g6
ssVhe
p2767
(dp2768
g2766
g6
sssS'755'
p2769
(dp2770
sS'560'
p2771
(dp2772
Vmenu
p2773
(dp2774
S'food'
p2775
g12
ssVdiverse
p2776
(dp2777
g2775
g6
sssS'3609'
p2778
(dp2779
sS'758'
p2780
(dp2781
Vfood
p2782
(dp2783
S'food'
p2784
g12
sssS'564'
p2785
(dp2786
Vtable
p2787
(dp2788
S'food'
p2789
g12
sssS'3071'
p2790
(dp2791
Vtables
p2792
(dp2793
S'food'
p2794
g45
sssS'3072'
p2795
(dp2796
Vprompt
p2797
(dp2798
S'service'
p2799
g6
ssVService
p2800
(dp2801
g2799
g6
sssS'3073'
p2802
(dp2803
VFood
p2804
(dp2805
S'food'
p2806
g6
sssS'1590'
p2807
(dp2808
Vtime
p2809
(dp2810
S'service'
p2811
g6
sssS'2954'
p2812
(dp2813
Vneighborhood
p2814
(dp2815
S'ambiance'
p2816
g12
ssVnice
p2817
(dp2818
g2816
g6
sssS'2957'
p2819
(dp2820
Vlarge
p2821
(dp2822
S'food'
p2823
g6
sS'atmosphere'
p2824
g6
sS'service'
p2825
g6
ssVsweet
p2826
(dp2827
g2823
g6
sg2825
g6
ssVbill
p2828
(dp2829
g2823
g12
sg2825
g12
ssVfood
p2830
(dp2831
g2823
g12
sg2824
g12
sg2825
g12
ssVwaiters
p2832
(dp2833
g2825
g6
sssS'3177'
p2834
(dp2835
Vate
p2836
(dp2837
S'food'
p2838
g6
sssS'220'
p2839
(dp2840
Vwants
p2841
(dp2842
S'atmosphere'
p2843
g6
sS'military_service'
p2844
g6
ssVwho
p2845
(dp2846
g2844
g6
sssS'1024'
p2847
(dp2848
sS'1027'
p2849
(dp2850
Vsake
p2851
(dp2852
S'food'
p2853
g12
sS'service'
p2854
g12
ssVbottle
p2855
(dp2856
g2853
g45
sg2854
g45
ssVsashimi
p2857
(dp2858
g2853
g6
sssS'2210'
p2859
(dp2860
Vspicy
p2861
(dp2862
S'food'
p2863
g12
ssVtimes
p2864
(dp2865
g2863
g45
sS'service'
p2866
g45
sssS'2216'
p2867
(dp2868
Vprice
p2869
(dp2870
S'monetary_value'
p2871
g12
sssS'2215'
p2872
(dp2873
Vprices
p2874
(dp2875
S'monetary_value'
p2876
g6
ssVambience
p2877
(dp2878
S'atmosphere'
p2879
g45
sg2876
g45
ssVfun
p2880
(dp2881
g2879
g6
sg2876
g6
sS'service'
p2882
g6
ssVtasty
p2883
(dp2884
S'food'
p2885
g6
sg2879
g6
sg2876
g6
sg2882
g6
ssVfood
p2886
(dp2887
g2885
g12
sg2879
g12
sg2876
g12
sg2882
g12
sssS'2214'
p2888
(dp2889
sS'1186'
p2890
(dp2891
sS'1187'
p2892
(dp2893
Vis
p2894
(dp2895
S'food'
p2896
g6
ssVit
p2897
(dp2898
g2896
g6
sssS'390'
p2899
(dp2900
Vask
p2901
(dp2902
S'food'
p2903
g6
sssS'1748'
p2904
(dp2905
sS'723'
p2906
(dp2907
g254
(dp2908
S'food'
p2909
g6
ssVcame
p2910
(dp2911
g2909
g6
sssS'721'
p2912
(dp2913
Vit
p2914
(dp2915
S'food'
p2916
g6
ssVlooks
p2917
(dp2918
g2916
g6
sS'atmosphere'
p2919
g6
sssS'2350'
p2920
(dp2921
Vtuna
p2922
(dp2923
S'food'
p2924
g6
sssS'1742'
p2925
(dp2926
Vlive
p2927
(dp2928
S'food'
p2929
g6
sssS'151'
p2930
(dp2931
sS'1165'
p2932
(dp2933
Vit
p2934
(dp2935
S'food'
p2936
g6
ssVworth
p2937
(dp2938
g2936
g6
sS'price'
p2939
g6
sssS'2438'
p2940
(dp2941
sS'1162'
p2942
(dp2943
Vstrict
p2944
(dp2945
S'food'
p2946
g6
sS'military_service'
p2947
g6
ssVcombination
p2948
(dp2949
g2947
g12
sssS'1163'
p2950
(dp2951
Vservice
p2952
(dp2953
S'service'
p2954
g6
sssS'1207'
p2955
(dp2956
Vtuna
p2957
(dp2958
S'food'
p2959
g45
ssVgari
p2960
(dp2961
g2959
g6
sS'service'
p2962
g6
sssS'1168'
p2963
(dp2964
sS'1169'
p2965
(dp2966
Vbills
p2967
(dp2968
S'service'
p2969
g12
sssS'2435'
p2970
(dp2971
g254
(dp2972
S'food'
p2973
g6
ssVrecommend
p2974
(dp2975
g2973
g6
sS'service'
p2976
g6
sssS'959'
p2977
(dp2978
Vatmosphere
p2979
(dp2980
S'atmosphere'
p2981
g12
ssVfriendly
p2982
(dp2983
g2981
g6
sS'military_service'
p2984
g6
sS'service'
p2985
g6
ssVservice
p2986
(dp2987
g2981
g6
sg2985
g6
sssS'1366'
p2988
(dp2989
Vgrace
p2990
(dp2991
S'atmosphere'
p2992
g12
ssVdrinks
p2993
(dp2994
S'food'
p2995
g6
sg2992
g6
sssS'47'
p2996
(dp2997
Vplace
p2998
(dp2999
S'atmosphere'
p3000
g12
ssVworth
p3001
(dp3002
g3000
g6
sS'price'
p3003
g6
sssS'637'
p3004
(dp3005
Vrooms
p3006
(dp3007
S'military_service'
p3008
g45
sssS'42'
p3009
(dp3010
VHEARTLAND
p3011
(dp3012
S'ambiance'
p3013
g6
sssS'87'
p3014
(dp3015
sS'1447'
p3016
(dp3017
Vthirsty
p3018
(dp3019
S'food'
p3020
g6
ssVHe
p3021
(dp3022
g3020
g6
sssS'1299'
p3023
(dp3024
sS'639'
p3025
(dp3026
sS'1119'
p3027
(dp3028
Vmenu
p3029
(dp3030
S'food'
p3031
g12
sS'atmosphere'
p3032
g12
ssVmade
p3033
(dp3034
g3031
g6
sg3032
g6
sS'service'
p3035
g6
ssVplace
p3036
(dp3037
g3032
g12
ssVspecial
p3038
(dp3039
g3031
g6
sg3032
g6
sssS'934'
p3040
(dp3041
Vmeat
p3042
(dp3043
S'food'
p3044
g6
sssS'1297'
p3045
(dp3046
Vrude
p3047
(dp3048
S'food'
p3049
g6
sssS'1566'
p3050
(dp3051
sS'1295'
p3052
(dp3053
Vservice
p3054
(dp3055
S'service'
p3056
g45
sssS'1558'
p3057
(dp3058
Vdeal
p3059
(dp3060
S'service'
p3061
g6
sssS'2004'
p3062
(dp3063
Vgo
p3064
(dp3065
S'service'
p3066
g6
sssS'1782'
p3067
(dp3068
sS'484'
p3069
(dp3070
sS'482'
p3071
(dp3072
sS'3428'
p3073
(dp3074
Vbe
p3075
(dp3076
S'food'
p3077
g6
sssS'1808'
p3078
(dp3079
Vtaste
p3080
(dp3081
S'food'
p3082
g6
sS'service'
p3083
g6
ssVmouth
p3084
(dp3085
g3082
g12
sg3083
g12
ssVit
p3086
(dp3087
g3082
g6
ssVservice
p3088
(dp3089
g3082
g45
sg3083
g45
sssS'2002'
p3090
(dp3091
sS'470'
p3092
(dp3093
sS'2007'
p3094
(dp3095
sS'474'
p3096
(dp3097
sS'479'
p3098
(dp3099
Vworld
p3100
(dp3101
S'food'
p3102
g45
sss.